
AVRASM ver. 2.1.30  C:\Users\ramona\Desktop\tempclock4laye\List\tempclock4.asm Tue Jan 16 23:16:35 2018

C:\Users\ramona\Desktop\tempclock4laye\List\tempclock4.asm(1070): warning: Register r5 already defined by the .DEF directive
C:\Users\ramona\Desktop\tempclock4laye\List\tempclock4.asm(1071): warning: Register r4 already defined by the .DEF directive
C:\Users\ramona\Desktop\tempclock4laye\List\tempclock4.asm(1072): warning: Register r7 already defined by the .DEF directive
C:\Users\ramona\Desktop\tempclock4laye\List\tempclock4.asm(1073): warning: Register r6 already defined by the .DEF directive
C:\Users\ramona\Desktop\tempclock4laye\List\tempclock4.asm(1074): warning: Register r9 already defined by the .DEF directive
C:\Users\ramona\Desktop\tempclock4laye\List\tempclock4.asm(1075): warning: Register r10 already defined by the .DEF directive
C:\Users\ramona\Desktop\tempclock4laye\List\tempclock4.asm(1076): warning: Register r8 already defined by the .DEF directive
C:\Users\ramona\Desktop\tempclock4laye\List\tempclock4.asm(1077): warning: Register r13 already defined by the .DEF directive
C:\Users\ramona\Desktop\tempclock4laye\List\tempclock4.asm(1078): warning: Register r12 already defined by the .DEF directive
                 
                 
                 ;CodeVisionAVR C Compiler V2.05.3 Standard
                 ;(C) Copyright 1998-2011 Pavel Haiduc, HP InfoTech s.r.l.
                 ;http://www.hpinfotech.com
                 
                 ;Chip type                : ATmega8
                 ;Program type             : Application
                 ;Clock frequency          : 8.000000 MHz
                 ;Memory model             : Small
                 ;Optimize for             : Size
                 ;(s)printf features       : int, width
                 ;(s)scanf features        : int, width
                 ;External RAM size        : 0
                 ;Data Stack size          : 256 byte(s)
                 ;Heap size                : 0 byte(s)
                 ;Promote 'char' to 'int'  : Yes
                 ;'char' is unsigned       : Yes
                 ;8 bit enums              : Yes
                 ;Global 'const' stored in FLASH     : No
                 ;Enhanced function parameter passing: Yes
                 ;Enhanced core instructions         : On
                 ;Smart register allocation          : On
                 ;Automatic register allocation      : On
                 
                 	#pragma AVRPART ADMIN PART_NAME ATmega8
                 	#pragma AVRPART MEMORY PROG_FLASH 8192
                 	#pragma AVRPART MEMORY EEPROM 512
                 	#pragma AVRPART MEMORY INT_SRAM SIZE 1119
                 	#pragma AVRPART MEMORY INT_SRAM START_ADDR 0x60
                 
                 	.LISTMAC
                 	.EQU UDRE=0x5
                 	.EQU RXC=0x7
                 	.EQU USR=0xB
                 	.EQU UDR=0xC
                 	.EQU SPSR=0xE
                 	.EQU SPDR=0xF
                 	.EQU EERE=0x0
                 	.EQU EEWE=0x1
                 	.EQU EEMWE=0x2
                 	.EQU EECR=0x1C
                 	.EQU EEDR=0x1D
                 	.EQU EEARL=0x1E
                 	.EQU EEARH=0x1F
                 	.EQU WDTCR=0x21
                 	.EQU MCUCR=0x35
                 	.EQU GICR=0x3B
                 	.EQU SPL=0x3D
                 	.EQU SPH=0x3E
                 	.EQU SREG=0x3F
                 
                 	.DEF R0X0=R0
                 	.DEF R0X1=R1
                 	.DEF R0X2=R2
                 	.DEF R0X3=R3
                 	.DEF R0X4=R4
                 	.DEF R0X5=R5
                 	.DEF R0X6=R6
                 	.DEF R0X7=R7
                 	.DEF R0X8=R8
                 	.DEF R0X9=R9
                 	.DEF R0XA=R10
                 	.DEF R0XB=R11
                 	.DEF R0XC=R12
                 	.DEF R0XD=R13
                 	.DEF R0XE=R14
                 	.DEF R0XF=R15
                 	.DEF R0X10=R16
                 	.DEF R0X11=R17
                 	.DEF R0X12=R18
                 	.DEF R0X13=R19
                 	.DEF R0X14=R20
                 	.DEF R0X15=R21
                 	.DEF R0X16=R22
                 	.DEF R0X17=R23
                 	.DEF R0X18=R24
                 	.DEF R0X19=R25
                 	.DEF R0X1A=R26
                 	.DEF R0X1B=R27
                 	.DEF R0X1C=R28
                 	.DEF R0X1D=R29
                 	.DEF R0X1E=R30
                 	.DEF R0X1F=R31
                 
                 	.EQU __SRAM_START=0x0060
                 	.EQU __SRAM_END=0x045F
                 	.EQU __DSTACK_SIZE=0x0100
                 	.EQU __HEAP_SIZE=0x0000
                 	.EQU __CLEAR_SRAM_SIZE=__SRAM_END-__SRAM_START+1
                 
                 	.MACRO __CPD1N
                 	CPI  R30,LOW(@0)
                 	LDI  R26,HIGH(@0)
                 	CPC  R31,R26
                 	LDI  R26,BYTE3(@0)
                 	CPC  R22,R26
                 	LDI  R26,BYTE4(@0)
                 	CPC  R23,R26
                 	.ENDM
                 
                 	.MACRO __CPD2N
                 	CPI  R26,LOW(@0)
                 	LDI  R30,HIGH(@0)
                 	CPC  R27,R30
                 	LDI  R30,BYTE3(@0)
                 	CPC  R24,R30
                 	LDI  R30,BYTE4(@0)
                 	CPC  R25,R30
                 	.ENDM
                 
                 	.MACRO __CPWRR
                 	CP   R@0,R@2
                 	CPC  R@1,R@3
                 	.ENDM
                 
                 	.MACRO __CPWRN
                 	CPI  R@0,LOW(@2)
                 	LDI  R30,HIGH(@2)
                 	CPC  R@1,R30
                 	.ENDM
                 
                 	.MACRO __ADDB1MN
                 	SUBI R30,LOW(-@0-(@1))
                 	.ENDM
                 
                 	.MACRO __ADDB2MN
                 	SUBI R26,LOW(-@0-(@1))
                 	.ENDM
                 
                 	.MACRO __ADDW1MN
                 	SUBI R30,LOW(-@0-(@1))
                 	SBCI R31,HIGH(-@0-(@1))
                 	.ENDM
                 
                 	.MACRO __ADDW2MN
                 	SUBI R26,LOW(-@0-(@1))
                 	SBCI R27,HIGH(-@0-(@1))
                 	.ENDM
                 
                 	.MACRO __ADDW1FN
                 	SUBI R30,LOW(-2*@0-(@1))
                 	SBCI R31,HIGH(-2*@0-(@1))
                 	.ENDM
                 
                 	.MACRO __ADDD1FN
                 	SUBI R30,LOW(-2*@0-(@1))
                 	SBCI R31,HIGH(-2*@0-(@1))
                 	SBCI R22,BYTE3(-2*@0-(@1))
                 	.ENDM
                 
                 	.MACRO __ADDD1N
                 	SUBI R30,LOW(-@0)
                 	SBCI R31,HIGH(-@0)
                 	SBCI R22,BYTE3(-@0)
                 	SBCI R23,BYTE4(-@0)
                 	.ENDM
                 
                 	.MACRO __ADDD2N
                 	SUBI R26,LOW(-@0)
                 	SBCI R27,HIGH(-@0)
                 	SBCI R24,BYTE3(-@0)
                 	SBCI R25,BYTE4(-@0)
                 	.ENDM
                 
                 	.MACRO __SUBD1N
                 	SUBI R30,LOW(@0)
                 	SBCI R31,HIGH(@0)
                 	SBCI R22,BYTE3(@0)
                 	SBCI R23,BYTE4(@0)
                 	.ENDM
                 
                 	.MACRO __SUBD2N
                 	SUBI R26,LOW(@0)
                 	SBCI R27,HIGH(@0)
                 	SBCI R24,BYTE3(@0)
                 	SBCI R25,BYTE4(@0)
                 	.ENDM
                 
                 	.MACRO __ANDBMNN
                 	LDS  R30,@0+(@1)
                 	ANDI R30,LOW(@2)
                 	STS  @0+(@1),R30
                 	.ENDM
                 
                 	.MACRO __ANDWMNN
                 	LDS  R30,@0+(@1)
                 	ANDI R30,LOW(@2)
                 	STS  @0+(@1),R30
                 	LDS  R30,@0+(@1)+1
                 	ANDI R30,HIGH(@2)
                 	STS  @0+(@1)+1,R30
                 	.ENDM
                 
                 	.MACRO __ANDD1N
                 	ANDI R30,LOW(@0)
                 	ANDI R31,HIGH(@0)
                 	ANDI R22,BYTE3(@0)
                 	ANDI R23,BYTE4(@0)
                 	.ENDM
                 
                 	.MACRO __ANDD2N
                 	ANDI R26,LOW(@0)
                 	ANDI R27,HIGH(@0)
                 	ANDI R24,BYTE3(@0)
                 	ANDI R25,BYTE4(@0)
                 	.ENDM
                 
                 	.MACRO __ORBMNN
                 	LDS  R30,@0+(@1)
                 	ORI  R30,LOW(@2)
                 	STS  @0+(@1),R30
                 	.ENDM
                 
                 	.MACRO __ORWMNN
                 	LDS  R30,@0+(@1)
                 	ORI  R30,LOW(@2)
                 	STS  @0+(@1),R30
                 	LDS  R30,@0+(@1)+1
                 	ORI  R30,HIGH(@2)
                 	STS  @0+(@1)+1,R30
                 	.ENDM
                 
                 	.MACRO __ORD1N
                 	ORI  R30,LOW(@0)
                 	ORI  R31,HIGH(@0)
                 	ORI  R22,BYTE3(@0)
                 	ORI  R23,BYTE4(@0)
                 	.ENDM
                 
                 	.MACRO __ORD2N
                 	ORI  R26,LOW(@0)
                 	ORI  R27,HIGH(@0)
                 	ORI  R24,BYTE3(@0)
                 	ORI  R25,BYTE4(@0)
                 	.ENDM
                 
                 	.MACRO __DELAY_USB
                 	LDI  R24,LOW(@0)
                 __DELAY_USB_LOOP:
                 	DEC  R24
                 	BRNE __DELAY_USB_LOOP
                 	.ENDM
                 
                 	.MACRO __DELAY_USW
                 	LDI  R24,LOW(@0)
                 	LDI  R25,HIGH(@0)
                 __DELAY_USW_LOOP:
                 	SBIW R24,1
                 	BRNE __DELAY_USW_LOOP
                 	.ENDM
                 
                 	.MACRO __GETD1S
                 	LDD  R30,Y+@0
                 	LDD  R31,Y+@0+1
                 	LDD  R22,Y+@0+2
                 	LDD  R23,Y+@0+3
                 	.ENDM
                 
                 	.MACRO __GETD2S
                 	LDD  R26,Y+@0
                 	LDD  R27,Y+@0+1
                 	LDD  R24,Y+@0+2
                 	LDD  R25,Y+@0+3
                 	.ENDM
                 
                 	.MACRO __PUTD1S
                 	STD  Y+@0,R30
                 	STD  Y+@0+1,R31
                 	STD  Y+@0+2,R22
                 	STD  Y+@0+3,R23
                 	.ENDM
                 
                 	.MACRO __PUTD2S
                 	STD  Y+@0,R26
                 	STD  Y+@0+1,R27
                 	STD  Y+@0+2,R24
                 	STD  Y+@0+3,R25
                 	.ENDM
                 
                 	.MACRO __PUTDZ2
                 	STD  Z+@0,R26
                 	STD  Z+@0+1,R27
                 	STD  Z+@0+2,R24
                 	STD  Z+@0+3,R25
                 	.ENDM
                 
                 	.MACRO __CLRD1S
                 	STD  Y+@0,R30
                 	STD  Y+@0+1,R30
                 	STD  Y+@0+2,R30
                 	STD  Y+@0+3,R30
                 	.ENDM
                 
                 	.MACRO __POINTB1MN
                 	LDI  R30,LOW(@0+(@1))
                 	.ENDM
                 
                 	.MACRO __POINTW1MN
                 	LDI  R30,LOW(@0+(@1))
                 	LDI  R31,HIGH(@0+(@1))
                 	.ENDM
                 
                 	.MACRO __POINTD1M
                 	LDI  R30,LOW(@0)
                 	LDI  R31,HIGH(@0)
                 	LDI  R22,BYTE3(@0)
                 	LDI  R23,BYTE4(@0)
                 	.ENDM
                 
                 	.MACRO __POINTW1FN
                 	LDI  R30,LOW(2*@0+(@1))
                 	LDI  R31,HIGH(2*@0+(@1))
                 	.ENDM
                 
                 	.MACRO __POINTD1FN
                 	LDI  R30,LOW(2*@0+(@1))
                 	LDI  R31,HIGH(2*@0+(@1))
                 	LDI  R22,BYTE3(2*@0+(@1))
                 	LDI  R23,BYTE4(2*@0+(@1))
                 	.ENDM
                 
                 	.MACRO __POINTB2MN
                 	LDI  R26,LOW(@0+(@1))
                 	.ENDM
                 
                 	.MACRO __POINTW2MN
                 	LDI  R26,LOW(@0+(@1))
                 	LDI  R27,HIGH(@0+(@1))
                 	.ENDM
                 
                 	.MACRO __POINTW2FN
                 	LDI  R26,LOW(2*@0+(@1))
                 	LDI  R27,HIGH(2*@0+(@1))
                 	.ENDM
                 
                 	.MACRO __POINTD2FN
                 	LDI  R26,LOW(2*@0+(@1))
                 	LDI  R27,HIGH(2*@0+(@1))
                 	LDI  R24,BYTE3(2*@0+(@1))
                 	LDI  R25,BYTE4(2*@0+(@1))
                 	.ENDM
                 
                 	.MACRO __POINTBRM
                 	LDI  R@0,LOW(@1)
                 	.ENDM
                 
                 	.MACRO __POINTWRM
                 	LDI  R@0,LOW(@2)
                 	LDI  R@1,HIGH(@2)
                 	.ENDM
                 
                 	.MACRO __POINTBRMN
                 	LDI  R@0,LOW(@1+(@2))
                 	.ENDM
                 
                 	.MACRO __POINTWRMN
                 	LDI  R@0,LOW(@2+(@3))
                 	LDI  R@1,HIGH(@2+(@3))
                 	.ENDM
                 
                 	.MACRO __POINTWRFN
                 	LDI  R@0,LOW(@2*2+(@3))
                 	LDI  R@1,HIGH(@2*2+(@3))
                 	.ENDM
                 
                 	.MACRO __GETD1N
                 	LDI  R30,LOW(@0)
                 	LDI  R31,HIGH(@0)
                 	LDI  R22,BYTE3(@0)
                 	LDI  R23,BYTE4(@0)
                 	.ENDM
                 
                 	.MACRO __GETD2N
                 	LDI  R26,LOW(@0)
                 	LDI  R27,HIGH(@0)
                 	LDI  R24,BYTE3(@0)
                 	LDI  R25,BYTE4(@0)
                 	.ENDM
                 
                 	.MACRO __GETB1MN
                 	LDS  R30,@0+(@1)
                 	.ENDM
                 
                 	.MACRO __GETB1HMN
                 	LDS  R31,@0+(@1)
                 	.ENDM
                 
                 	.MACRO __GETW1MN
                 	LDS  R30,@0+(@1)
                 	LDS  R31,@0+(@1)+1
                 	.ENDM
                 
                 	.MACRO __GETD1MN
                 	LDS  R30,@0+(@1)
                 	LDS  R31,@0+(@1)+1
                 	LDS  R22,@0+(@1)+2
                 	LDS  R23,@0+(@1)+3
                 	.ENDM
                 
                 	.MACRO __GETBRMN
                 	LDS  R@0,@1+(@2)
                 	.ENDM
                 
                 	.MACRO __GETWRMN
                 	LDS  R@0,@2+(@3)
                 	LDS  R@1,@2+(@3)+1
                 	.ENDM
                 
                 	.MACRO __GETWRZ
                 	LDD  R@0,Z+@2
                 	LDD  R@1,Z+@2+1
                 	.ENDM
                 
                 	.MACRO __GETD2Z
                 	LDD  R26,Z+@0
                 	LDD  R27,Z+@0+1
                 	LDD  R24,Z+@0+2
                 	LDD  R25,Z+@0+3
                 	.ENDM
                 
                 	.MACRO __GETB2MN
                 	LDS  R26,@0+(@1)
                 	.ENDM
                 
                 	.MACRO __GETW2MN
                 	LDS  R26,@0+(@1)
                 	LDS  R27,@0+(@1)+1
                 	.ENDM
                 
                 	.MACRO __GETD2MN
                 	LDS  R26,@0+(@1)
                 	LDS  R27,@0+(@1)+1
                 	LDS  R24,@0+(@1)+2
                 	LDS  R25,@0+(@1)+3
                 	.ENDM
                 
                 	.MACRO __PUTB1MN
                 	STS  @0+(@1),R30
                 	.ENDM
                 
                 	.MACRO __PUTW1MN
                 	STS  @0+(@1),R30
                 	STS  @0+(@1)+1,R31
                 	.ENDM
                 
                 	.MACRO __PUTD1MN
                 	STS  @0+(@1),R30
                 	STS  @0+(@1)+1,R31
                 	STS  @0+(@1)+2,R22
                 	STS  @0+(@1)+3,R23
                 	.ENDM
                 
                 	.MACRO __PUTB1EN
                 	LDI  R26,LOW(@0+(@1))
                 	LDI  R27,HIGH(@0+(@1))
                 	RCALL __EEPROMWRB
                 	.ENDM
                 
                 	.MACRO __PUTW1EN
                 	LDI  R26,LOW(@0+(@1))
                 	LDI  R27,HIGH(@0+(@1))
                 	RCALL __EEPROMWRW
                 	.ENDM
                 
                 	.MACRO __PUTD1EN
                 	LDI  R26,LOW(@0+(@1))
                 	LDI  R27,HIGH(@0+(@1))
                 	RCALL __EEPROMWRD
                 	.ENDM
                 
                 	.MACRO __PUTBR0MN
                 	STS  @0+(@1),R0
                 	.ENDM
                 
                 	.MACRO __PUTBMRN
                 	STS  @0+(@1),R@2
                 	.ENDM
                 
                 	.MACRO __PUTWMRN
                 	STS  @0+(@1),R@2
                 	STS  @0+(@1)+1,R@3
                 	.ENDM
                 
                 	.MACRO __PUTBZR
                 	STD  Z+@1,R@0
                 	.ENDM
                 
                 	.MACRO __PUTWZR
                 	STD  Z+@2,R@0
                 	STD  Z+@2+1,R@1
                 	.ENDM
                 
                 	.MACRO __GETW1R
                 	MOV  R30,R@0
                 	MOV  R31,R@1
                 	.ENDM
                 
                 	.MACRO __GETW2R
                 	MOV  R26,R@0
                 	MOV  R27,R@1
                 	.ENDM
                 
                 	.MACRO __GETWRN
                 	LDI  R@0,LOW(@2)
                 	LDI  R@1,HIGH(@2)
                 	.ENDM
                 
                 	.MACRO __PUTW1R
                 	MOV  R@0,R30
                 	MOV  R@1,R31
                 	.ENDM
                 
                 	.MACRO __PUTW2R
                 	MOV  R@0,R26
                 	MOV  R@1,R27
                 	.ENDM
                 
                 	.MACRO __ADDWRN
                 	SUBI R@0,LOW(-@2)
                 	SBCI R@1,HIGH(-@2)
                 	.ENDM
                 
                 	.MACRO __ADDWRR
                 	ADD  R@0,R@2
                 	ADC  R@1,R@3
                 	.ENDM
                 
                 	.MACRO __SUBWRN
                 	SUBI R@0,LOW(@2)
                 	SBCI R@1,HIGH(@2)
                 	.ENDM
                 
                 	.MACRO __SUBWRR
                 	SUB  R@0,R@2
                 	SBC  R@1,R@3
                 	.ENDM
                 
                 	.MACRO __ANDWRN
                 	ANDI R@0,LOW(@2)
                 	ANDI R@1,HIGH(@2)
                 	.ENDM
                 
                 	.MACRO __ANDWRR
                 	AND  R@0,R@2
                 	AND  R@1,R@3
                 	.ENDM
                 
                 	.MACRO __ORWRN
                 	ORI  R@0,LOW(@2)
                 	ORI  R@1,HIGH(@2)
                 	.ENDM
                 
                 	.MACRO __ORWRR
                 	OR   R@0,R@2
                 	OR   R@1,R@3
                 	.ENDM
                 
                 	.MACRO __EORWRR
                 	EOR  R@0,R@2
                 	EOR  R@1,R@3
                 	.ENDM
                 
                 	.MACRO __GETWRS
                 	LDD  R@0,Y+@2
                 	LDD  R@1,Y+@2+1
                 	.ENDM
                 
                 	.MACRO __PUTBSR
                 	STD  Y+@1,R@0
                 	.ENDM
                 
                 	.MACRO __PUTWSR
                 	STD  Y+@2,R@0
                 	STD  Y+@2+1,R@1
                 	.ENDM
                 
                 	.MACRO __MOVEWRR
                 	MOV  R@0,R@2
                 	MOV  R@1,R@3
                 	.ENDM
                 
                 	.MACRO __INWR
                 	IN   R@0,@2
                 	IN   R@1,@2+1
                 	.ENDM
                 
                 	.MACRO __OUTWR
                 	OUT  @2+1,R@1
                 	OUT  @2,R@0
                 	.ENDM
                 
                 	.MACRO __CALL1MN
                 	LDS  R30,@0+(@1)
                 	LDS  R31,@0+(@1)+1
                 	ICALL
                 	.ENDM
                 
                 	.MACRO __CALL1FN
                 	LDI  R30,LOW(2*@0+(@1))
                 	LDI  R31,HIGH(2*@0+(@1))
                 	RCALL __GETW1PF
                 	ICALL
                 	.ENDM
                 
                 	.MACRO __CALL2EN
                 	LDI  R26,LOW(@0+(@1))
                 	LDI  R27,HIGH(@0+(@1))
                 	RCALL __EEPROMRDW
                 	ICALL
                 	.ENDM
                 
                 	.MACRO __GETW1STACK
                 	IN   R26,SPL
                 	IN   R27,SPH
                 	ADIW R26,@0+1
                 	LD   R30,X+
                 	LD   R31,X
                 	.ENDM
                 
                 	.MACRO __GETD1STACK
                 	IN   R26,SPL
                 	IN   R27,SPH
                 	ADIW R26,@0+1
                 	LD   R30,X+
                 	LD   R31,X+
                 	LD   R22,X
                 	.ENDM
                 
                 	.MACRO __NBST
                 	BST  R@0,@1
                 	IN   R30,SREG
                 	LDI  R31,0x40
                 	EOR  R30,R31
                 	OUT  SREG,R30
                 	.ENDM
                 
                 
                 	.MACRO __PUTB1SN
                 	LDD  R26,Y+@0
                 	LDD  R27,Y+@0+1
                 	SUBI R26,LOW(-@1)
                 	SBCI R27,HIGH(-@1)
                 	ST   X,R30
                 	.ENDM
                 
                 	.MACRO __PUTW1SN
                 	LDD  R26,Y+@0
                 	LDD  R27,Y+@0+1
                 	SUBI R26,LOW(-@1)
                 	SBCI R27,HIGH(-@1)
                 	ST   X+,R30
                 	ST   X,R31
                 	.ENDM
                 
                 	.MACRO __PUTD1SN
                 	LDD  R26,Y+@0
                 	LDD  R27,Y+@0+1
                 	SUBI R26,LOW(-@1)
                 	SBCI R27,HIGH(-@1)
                 	RCALL __PUTDP1
                 	.ENDM
                 
                 	.MACRO __PUTB1SNS
                 	LDD  R26,Y+@0
                 	LDD  R27,Y+@0+1
                 	ADIW R26,@1
                 	ST   X,R30
                 	.ENDM
                 
                 	.MACRO __PUTW1SNS
                 	LDD  R26,Y+@0
                 	LDD  R27,Y+@0+1
                 	ADIW R26,@1
                 	ST   X+,R30
                 	ST   X,R31
                 	.ENDM
                 
                 	.MACRO __PUTD1SNS
                 	LDD  R26,Y+@0
                 	LDD  R27,Y+@0+1
                 	ADIW R26,@1
                 	RCALL __PUTDP1
                 	.ENDM
                 
                 	.MACRO __PUTB1PMN
                 	LDS  R26,@0
                 	LDS  R27,@0+1
                 	SUBI R26,LOW(-@1)
                 	SBCI R27,HIGH(-@1)
                 	ST   X,R30
                 	.ENDM
                 
                 	.MACRO __PUTW1PMN
                 	LDS  R26,@0
                 	LDS  R27,@0+1
                 	SUBI R26,LOW(-@1)
                 	SBCI R27,HIGH(-@1)
                 	ST   X+,R30
                 	ST   X,R31
                 	.ENDM
                 
                 	.MACRO __PUTD1PMN
                 	LDS  R26,@0
                 	LDS  R27,@0+1
                 	SUBI R26,LOW(-@1)
                 	SBCI R27,HIGH(-@1)
                 	RCALL __PUTDP1
                 	.ENDM
                 
                 	.MACRO __PUTB1PMNS
                 	LDS  R26,@0
                 	LDS  R27,@0+1
                 	ADIW R26,@1
                 	ST   X,R30
                 	.ENDM
                 
                 	.MACRO __PUTW1PMNS
                 	LDS  R26,@0
                 	LDS  R27,@0+1
                 	ADIW R26,@1
                 	ST   X+,R30
                 	ST   X,R31
                 	.ENDM
                 
                 	.MACRO __PUTD1PMNS
                 	LDS  R26,@0
                 	LDS  R27,@0+1
                 	ADIW R26,@1
                 	RCALL __PUTDP1
                 	.ENDM
                 
                 	.MACRO __PUTB1RN
                 	MOVW R26,R@0
                 	SUBI R26,LOW(-@1)
                 	SBCI R27,HIGH(-@1)
                 	ST   X,R30
                 	.ENDM
                 
                 	.MACRO __PUTW1RN
                 	MOVW R26,R@0
                 	SUBI R26,LOW(-@1)
                 	SBCI R27,HIGH(-@1)
                 	ST   X+,R30
                 	ST   X,R31
                 	.ENDM
                 
                 	.MACRO __PUTD1RN
                 	MOVW R26,R@0
                 	SUBI R26,LOW(-@1)
                 	SBCI R27,HIGH(-@1)
                 	RCALL __PUTDP1
                 	.ENDM
                 
                 	.MACRO __PUTB1RNS
                 	MOVW R26,R@0
                 	ADIW R26,@1
                 	ST   X,R30
                 	.ENDM
                 
                 	.MACRO __PUTW1RNS
                 	MOVW R26,R@0
                 	ADIW R26,@1
                 	ST   X+,R30
                 	ST   X,R31
                 	.ENDM
                 
                 	.MACRO __PUTD1RNS
                 	MOVW R26,R@0
                 	ADIW R26,@1
                 	RCALL __PUTDP1
                 	.ENDM
                 
                 	.MACRO __PUTB1RON
                 	MOV  R26,R@0
                 	MOV  R27,R@1
                 	SUBI R26,LOW(-@2)
                 	SBCI R27,HIGH(-@2)
                 	ST   X,R30
                 	.ENDM
                 
                 	.MACRO __PUTW1RON
                 	MOV  R26,R@0
                 	MOV  R27,R@1
                 	SUBI R26,LOW(-@2)
                 	SBCI R27,HIGH(-@2)
                 	ST   X+,R30
                 	ST   X,R31
                 	.ENDM
                 
                 	.MACRO __PUTD1RON
                 	MOV  R26,R@0
                 	MOV  R27,R@1
                 	SUBI R26,LOW(-@2)
                 	SBCI R27,HIGH(-@2)
                 	RCALL __PUTDP1
                 	.ENDM
                 
                 	.MACRO __PUTB1RONS
                 	MOV  R26,R@0
                 	MOV  R27,R@1
                 	ADIW R26,@2
                 	ST   X,R30
                 	.ENDM
                 
                 	.MACRO __PUTW1RONS
                 	MOV  R26,R@0
                 	MOV  R27,R@1
                 	ADIW R26,@2
                 	ST   X+,R30
                 	ST   X,R31
                 	.ENDM
                 
                 	.MACRO __PUTD1RONS
                 	MOV  R26,R@0
                 	MOV  R27,R@1
                 	ADIW R26,@2
                 	RCALL __PUTDP1
                 	.ENDM
                 
                 
                 	.MACRO __GETB1SX
                 	MOVW R30,R28
                 	SUBI R30,LOW(-@0)
                 	SBCI R31,HIGH(-@0)
                 	LD   R30,Z
                 	.ENDM
                 
                 	.MACRO __GETB1HSX
                 	MOVW R30,R28
                 	SUBI R30,LOW(-@0)
                 	SBCI R31,HIGH(-@0)
                 	LD   R31,Z
                 	.ENDM
                 
                 	.MACRO __GETW1SX
                 	MOVW R30,R28
                 	SUBI R30,LOW(-@0)
                 	SBCI R31,HIGH(-@0)
                 	LD   R0,Z+
                 	LD   R31,Z
                 	MOV  R30,R0
                 	.ENDM
                 
                 	.MACRO __GETD1SX
                 	MOVW R30,R28
                 	SUBI R30,LOW(-@0)
                 	SBCI R31,HIGH(-@0)
                 	LD   R0,Z+
                 	LD   R1,Z+
                 	LD   R22,Z+
                 	LD   R23,Z
                 	MOVW R30,R0
                 	.ENDM
                 
                 	.MACRO __GETB2SX
                 	MOVW R26,R28
                 	SUBI R26,LOW(-@0)
                 	SBCI R27,HIGH(-@0)
                 	LD   R26,X
                 	.ENDM
                 
                 	.MACRO __GETW2SX
                 	MOVW R26,R28
                 	SUBI R26,LOW(-@0)
                 	SBCI R27,HIGH(-@0)
                 	LD   R0,X+
                 	LD   R27,X
                 	MOV  R26,R0
                 	.ENDM
                 
                 	.MACRO __GETD2SX
                 	MOVW R26,R28
                 	SUBI R26,LOW(-@0)
                 	SBCI R27,HIGH(-@0)
                 	LD   R0,X+
                 	LD   R1,X+
                 	LD   R24,X+
                 	LD   R25,X
                 	MOVW R26,R0
                 	.ENDM
                 
                 	.MACRO __GETBRSX
                 	MOVW R30,R28
                 	SUBI R30,LOW(-@1)
                 	SBCI R31,HIGH(-@1)
                 	LD   R@0,Z
                 	.ENDM
                 
                 	.MACRO __GETWRSX
                 	MOVW R30,R28
                 	SUBI R30,LOW(-@2)
                 	SBCI R31,HIGH(-@2)
                 	LD   R@0,Z+
                 	LD   R@1,Z
                 	.ENDM
                 
                 	.MACRO __GETBRSX2
                 	MOVW R26,R28
                 	SUBI R26,LOW(-@1)
                 	SBCI R27,HIGH(-@1)
                 	LD   R@0,X
                 	.ENDM
                 
                 	.MACRO __GETWRSX2
                 	MOVW R26,R28
                 	SUBI R26,LOW(-@2)
                 	SBCI R27,HIGH(-@2)
                 	LD   R@0,X+
                 	LD   R@1,X
                 	.ENDM
                 
                 	.MACRO __LSLW8SX
                 	MOVW R30,R28
                 	SUBI R30,LOW(-@0)
                 	SBCI R31,HIGH(-@0)
                 	LD   R31,Z
                 	CLR  R30
                 	.ENDM
                 
                 	.MACRO __PUTB1SX
                 	MOVW R26,R28
                 	SUBI R26,LOW(-@0)
                 	SBCI R27,HIGH(-@0)
                 	ST   X,R30
                 	.ENDM
                 
                 	.MACRO __PUTW1SX
                 	MOVW R26,R28
                 	SUBI R26,LOW(-@0)
                 	SBCI R27,HIGH(-@0)
                 	ST   X+,R30
                 	ST   X,R31
                 	.ENDM
                 
                 	.MACRO __PUTD1SX
                 	MOVW R26,R28
                 	SUBI R26,LOW(-@0)
                 	SBCI R27,HIGH(-@0)
                 	ST   X+,R30
                 	ST   X+,R31
                 	ST   X+,R22
                 	ST   X,R23
                 	.ENDM
                 
                 	.MACRO __CLRW1SX
                 	MOVW R26,R28
                 	SUBI R26,LOW(-@0)
                 	SBCI R27,HIGH(-@0)
                 	ST   X+,R30
                 	ST   X,R30
                 	.ENDM
                 
                 	.MACRO __CLRD1SX
                 	MOVW R26,R28
                 	SUBI R26,LOW(-@0)
                 	SBCI R27,HIGH(-@0)
                 	ST   X+,R30
                 	ST   X+,R30
                 	ST   X+,R30
                 	ST   X,R30
                 	.ENDM
                 
                 	.MACRO __PUTB2SX
                 	MOVW R30,R28
                 	SUBI R30,LOW(-@0)
                 	SBCI R31,HIGH(-@0)
                 	ST   Z,R26
                 	.ENDM
                 
                 	.MACRO __PUTW2SX
                 	MOVW R30,R28
                 	SUBI R30,LOW(-@0)
                 	SBCI R31,HIGH(-@0)
                 	ST   Z+,R26
                 	ST   Z,R27
                 	.ENDM
                 
                 	.MACRO __PUTD2SX
                 	MOVW R30,R28
                 	SUBI R30,LOW(-@0)
                 	SBCI R31,HIGH(-@0)
                 	ST   Z+,R26
                 	ST   Z+,R27
                 	ST   Z+,R24
                 	ST   Z,R25
                 	.ENDM
                 
                 	.MACRO __PUTBSRX
                 	MOVW R30,R28
                 	SUBI R30,LOW(-@1)
                 	SBCI R31,HIGH(-@1)
                 	ST   Z,R@0
                 	.ENDM
                 
                 	.MACRO __PUTWSRX
                 	MOVW R30,R28
                 	SUBI R30,LOW(-@2)
                 	SBCI R31,HIGH(-@2)
                 	ST   Z+,R@0
                 	ST   Z,R@1
                 	.ENDM
                 
                 	.MACRO __PUTB1SNX
                 	MOVW R26,R28
                 	SUBI R26,LOW(-@0)
                 	SBCI R27,HIGH(-@0)
                 	LD   R0,X+
                 	LD   R27,X
                 	MOV  R26,R0
                 	SUBI R26,LOW(-@1)
                 	SBCI R27,HIGH(-@1)
                 	ST   X,R30
                 	.ENDM
                 
                 	.MACRO __PUTW1SNX
                 	MOVW R26,R28
                 	SUBI R26,LOW(-@0)
                 	SBCI R27,HIGH(-@0)
                 	LD   R0,X+
                 	LD   R27,X
                 	MOV  R26,R0
                 	SUBI R26,LOW(-@1)
                 	SBCI R27,HIGH(-@1)
                 	ST   X+,R30
                 	ST   X,R31
                 	.ENDM
                 
                 	.MACRO __PUTD1SNX
                 	MOVW R26,R28
                 	SUBI R26,LOW(-@0)
                 	SBCI R27,HIGH(-@0)
                 	LD   R0,X+
                 	LD   R27,X
                 	MOV  R26,R0
                 	SUBI R26,LOW(-@1)
                 	SBCI R27,HIGH(-@1)
                 	ST   X+,R30
                 	ST   X+,R31
                 	ST   X+,R22
                 	ST   X,R23
                 	.ENDM
                 
                 	.MACRO __MULBRR
                 	MULS R@0,R@1
                 	MOVW R30,R0
                 	.ENDM
                 
                 	.MACRO __MULBRRU
                 	MUL  R@0,R@1
                 	MOVW R30,R0
                 	.ENDM
                 
                 	.MACRO __MULBRR0
                 	MULS R@0,R@1
                 	.ENDM
                 
                 	.MACRO __MULBRRU0
                 	MUL  R@0,R@1
                 	.ENDM
                 
                 	.MACRO __MULBNWRU
                 	LDI  R26,@2
                 	MUL  R26,R@0
                 	MOVW R30,R0
                 	MUL  R26,R@1
                 	ADD  R31,R0
                 	.ENDM
                 
                 ;NAME DEFINITIONS FOR GLOBAL VARIABLES ALLOCATED TO REGISTERS
                 	.DEF _mah=R5
                 	.DEF _rooz=R4
                 	.DEF _day=R7
                 	.DEF _month=R6
                 	.DEF _year=R9
                 	.DEF _sal=R10
                 	.DEF _hour=R8
                 	.DEF _miin=R13
                 	.DEF _sec=R12
                 
                 	.CSEG
                 	.ORG 0x00
                 
                 ;START OF CODE MARKER
                 __START_OF_CODE:
                 
                 ;INTERRUPT VECTORS
000000 c256      	RJMP __RESET
000001 c373      	RJMP _ext_int0_isr
000002 cffd      	RJMP 0x00
000003 cffc      	RJMP 0x00
000004 cffb      	RJMP 0x00
000005 cffa      	RJMP 0x00
000006 cff9      	RJMP 0x00
000007 cff8      	RJMP 0x00
000008 cff7      	RJMP 0x00
000009 cff6      	RJMP 0x00
00000a cff5      	RJMP 0x00
00000b cff4      	RJMP 0x00
00000c cff3      	RJMP 0x00
00000d cff2      	RJMP 0x00
00000e cff1      	RJMP 0x00
00000f cff0      	RJMP 0x00
000010 cfef      	RJMP 0x00
000011 cfee      	RJMP 0x00
000012 cfed      	RJMP 0x00
                 
                 _char0:
000013 0e04
000014 1f1f
000015 0000
000016 0000      	.DB  0x4,0xE,0x1F,0x1F,0x0,0x0,0x0,0x0
                 _char1:
000017 0000
000018 1f00
000019 0e1f
00001a 0004      	.DB  0x0,0x0,0x0,0x1F,0x1F,0xE,0x4,0x0
                 _char3:
00001b 0a04
00001c 1500
00001d 001f
00001e 0000      	.DB  0x4,0xA,0x0,0x15,0x1F,0x0,0x0,0x0
                 _char4:
00001f 0200
000020 0500
000021 001f
000022 0008      	.DB  0x0,0x2,0x0,0x5,0x1F,0x0,0x8,0x0
                 _char5:
000023 0200
000024 0e0e
000025 0003
000026 0000      	.DB  0x0,0x2,0xE,0xE,0x3,0x0,0x0,0x0
                 _char6:
000027 0400
000028 010a
000029 001f
00002a 0004      	.DB  0x0,0x4,0xA,0x1,0x1F,0x0,0x4,0x0
                 _char7:
00002b 0000
00002c 0000
00002d 0a1f
00002e 000e      	.DB  0x0,0x0,0x0,0x0,0x1F,0xA,0xE,0x0
                 _char8:
00002f 1f00
000030 040e
000031 001f
000032 0000      	.DB  0x0,0x1F,0xE,0x4,0x1F,0x0,0x0,0x0
                 _tbl10_G103:
000033 2710
000034 03e8
000035 0064
000036 000a      	.DB  0x10,0x27,0xE8,0x3,0x64,0x0,0xA,0x0
000037 0001      	.DB  0x1,0x0
                 _tbl16_G103:
000038 1000
000039 0100
00003a 0010
00003b 0001      	.DB  0x0,0x10,0x0,0x1,0x10,0x0,0x1,0x0
                 
                 ;REGISTER BIT VARIABLES INITIALIZATION
                 __REG_BIT_VARS:
00003c 0000      	.DW  0x0000
                 
                 _0x3:
00003d 0000
00003e 4190      	.DB  0x0,0x0,0x90,0x41
                 _0x4:
00003f 0000
000040 41d8      	.DB  0x0,0x0,0xD8,0x41
                 _0x5:
000041 0000
000042 4170      	.DB  0x0,0x0,0x70,0x41
                 _0x6:
000043 0000
000044 4220      	.DB  0x0,0x0,0x20,0x42
                 _0x7:
000045 1c1f
000046 1e1f
000047 1e1f
000048 1f1f      	.DB  0x1F,0x1C,0x1F,0x1E,0x1F,0x1E,0x1F,0x1F
000049 1f1e
00004a 1f1e      	.DB  0x1E,0x1F,0x1E,0x1F
                 _0x8:
00004b 1f1f
00004c 1f1f
00004d 1f1f
00004e 1e1e      	.DB  0x1F,0x1F,0x1F,0x1F,0x1F,0x1F,0x1E,0x1E
00004f 1e1e
000050 1d1e      	.DB  0x1E,0x1E,0x1E,0x1D
                 _0x11D:
000051 0000
000052 0000
000053 0000
000054 0000      	.DB  0x0,0x0,0x0,0x0,0x0,0x0,0x0,0x0
000055 0000
000056 0000
000057 0000
000058 0000      	.DB  0x0,0x0,0x0,0x0,0x0,0x0,0x0,0x0
000059 0000
00005a 0000
00005b 0000
00005c 0000      	.DB  0x0,0x0,0x0,0x0,0x0,0x0,0x0,0x0
00005d 0000
00005e 0000
00005f 0000
000060 0000      	.DB  0x0,0x0,0x0,0x0,0x0,0x0,0x0,0x0
000061 0000
000062 0000
000063 0000
000064 0000      	.DB  0x0,0x0,0x0,0x0,0x0,0x0,0x0,0x0
000065 0000
000066 0000
000067 0000
000068 0000      	.DB  0x0,0x0,0x0,0x0,0x0,0x0,0x0,0x0
000069 0000
00006a 0000
00006b 0000
00006c 0000      	.DB  0x0,0x0,0x0,0x0,0x0,0x0,0x0,0x0
00006d 0000
00006e 0000
00006f 0000
000070 0000      	.DB  0x0,0x0,0x0,0x0,0x0,0x0,0x0,0x0
000071 0000
000072 0000
000073 0000
000074 0000      	.DB  0x0,0x0,0x0,0x0,0x0,0x0,0x0,0x0
000075 0000
000076 0000
000077 0000
000078 0000      	.DB  0x0,0x0,0x0,0x0,0x0,0x0,0x0,0x0
000079 0000      	.DB  0x0,0x0
                 _0x189:
00007a 0000
00007b 0000
00007c 0000
00007d 0000      	.DB  0x0,0x0,0x0,0x0,0x0,0x0,0x0,0x0
C:\Users\ramona\Desktop\tempclock4laye\List\tempclock4.asm(1161): warning: .cseg .db misalignment - padding zero byte
00007e 0000      	.DB  0x0
                 _0x0:
00007f 6425
000080 7300
000081 6e75
000082 6d00      	.DB  0x25,0x64,0x0,0x73,0x75,0x6E,0x0,0x6D
000083 6e6f
000084 7400
000085 6575
000086 7700      	.DB  0x6F,0x6E,0x0,0x74,0x75,0x65,0x0,0x77
000087 6465
000088 7400
000089 7568
00008a 6600      	.DB  0x65,0x64,0x0,0x74,0x68,0x75,0x0,0x66
00008b 6972
00008c 7300
00008d 7461
00008e 2000      	.DB  0x72,0x69,0x0,0x73,0x61,0x74,0x0,0x20
00008f 2000
000090 2020
000091 253c
000092 3230      	.DB  0x0,0x20,0x20,0x20,0x3C,0x25,0x30,0x32
000093 3e64
000094 203a
000095 3025
000096 6432      	.DB  0x64,0x3E,0x3A,0x20,0x25,0x30,0x32,0x64
000097 3a20
000098 2520
000099 3230
00009a 2064      	.DB  0x20,0x3A,0x20,0x25,0x30,0x32,0x64,0x20
00009b 2000
00009c 2020
00009d 2520
00009e 3230      	.DB  0x0,0x20,0x20,0x20,0x20,0x25,0x30,0x32
00009f 2064
0000a0 3c3a
0000a1 3025
0000a2 6432      	.DB  0x64,0x20,0x3A,0x3C,0x25,0x30,0x32,0x64
0000a3 3a3e
0000a4 2520
0000a5 3230
0000a6 2064      	.DB  0x3E,0x3A,0x20,0x25,0x30,0x32,0x64,0x20
0000a7 2000
0000a8 2020
0000a9 2520
0000aa 3230      	.DB  0x0,0x20,0x20,0x20,0x20,0x25,0x30,0x32
0000ab 2064
0000ac 203a
0000ad 3025
0000ae 6432      	.DB  0x64,0x20,0x3A,0x20,0x25,0x30,0x32,0x64
0000af 3a20
0000b0 253c
0000b1 3230
0000b2 3e64      	.DB  0x20,0x3A,0x3C,0x25,0x30,0x32,0x64,0x3E
0000b3 0020
0000b4 253c
0000b5 3230
0000b6 3e75      	.DB  0x20,0x0,0x3C,0x25,0x30,0x32,0x75,0x3E
0000b7 202f
0000b8 3025
0000b9 7532
0000ba 2f20      	.DB  0x2F,0x20,0x25,0x30,0x32,0x75,0x20,0x2F
0000bb 2520
0000bc 3230
0000bd 2064
0000be 0020      	.DB  0x20,0x25,0x30,0x32,0x64,0x20,0x20,0x0
0000bf 2520
0000c0 3230
0000c1 2075
0000c2 3c2f      	.DB  0x20,0x25,0x30,0x32,0x75,0x20,0x2F,0x3C
0000c3 3025
0000c4 7532
0000c5 2f3e
0000c6 2520      	.DB  0x25,0x30,0x32,0x75,0x3E,0x2F,0x20,0x25
0000c7 3230
0000c8 2064
0000c9 0020
0000ca 2520      	.DB  0x30,0x32,0x64,0x20,0x20,0x0,0x20,0x25
0000cb 3230
0000cc 2075
0000cd 202f
0000ce 3025      	.DB  0x30,0x32,0x75,0x20,0x2F,0x20,0x25,0x30
0000cf 7532
0000d0 2f20
0000d1 253c
0000d2 3230      	.DB  0x32,0x75,0x20,0x2F,0x3C,0x25,0x30,0x32
0000d3 3e64
0000d4 0020
0000d5 2520
0000d6 3230      	.DB  0x64,0x3E,0x20,0x0,0x20,0x25,0x30,0x32
0000d7 2075
0000d8 202f
0000d9 3025
0000da 7532      	.DB  0x75,0x20,0x2F,0x20,0x25,0x30,0x32,0x75
0000db 2f20
0000dc 2520
0000dd 3230
0000de 2064      	.DB  0x20,0x2F,0x20,0x25,0x30,0x32,0x64,0x20
0000df 3c00
0000e0 3e00
0000e1 3100
0000e2 542e      	.DB  0x0,0x3C,0x0,0x3E,0x0,0x31,0x2E,0x54
0000e3 6d69
0000e4 2065
0000e5 203c
0000e6 2020      	.DB  0x69,0x6D,0x65,0x20,0x3C,0x20,0x20,0x20
0000e7 2020
0000e8 2020
0000e9 2020
0000ea 2020      	.DB  0x20,0x20,0x20,0x20,0x20,0x20,0x20,0x20
0000eb 0020
0000ec 2e32
0000ed 6144
0000ee 6574      	.DB  0x20,0x0,0x32,0x2E,0x44,0x61,0x74,0x65
0000ef 2020
0000f0 2020
0000f1 2020
0000f2 2020      	.DB  0x20,0x20,0x20,0x20,0x20,0x20,0x20,0x20
0000f3 2020
0000f4 2020
0000f5 0020
0000f6 2e31      	.DB  0x20,0x20,0x20,0x20,0x20,0x0,0x31,0x2E
0000f7 6954
0000f8 656d
0000f9 2020
0000fa 2020      	.DB  0x54,0x69,0x6D,0x65,0x20,0x20,0x20,0x20
0000fb 2020
0000fc 2020
0000fd 2020
0000fe 2020      	.DB  0x20,0x20,0x20,0x20,0x20,0x20,0x20,0x20
0000ff 0020
000100 2e32
000101 6144
000102 6574      	.DB  0x20,0x0,0x32,0x2E,0x44,0x61,0x74,0x65
000103 3c20
000104 2020
000105 2020
000106 2020      	.DB  0x20,0x3C,0x20,0x20,0x20,0x20,0x20,0x20
000107 2020
000108 2020
000109 0020
00010a 2e33      	.DB  0x20,0x20,0x20,0x20,0x20,0x0,0x33,0x2E
00010b 6554
00010c 706d
00010d 4826
00010e 6d75      	.DB  0x54,0x65,0x6D,0x70,0x26,0x48,0x75,0x6D
00010f 3c20
000110 2020
000111 2020
000112 2020      	.DB  0x20,0x3C,0x20,0x20,0x20,0x20,0x20,0x20
000113 0020
000114 2e31
000115 6553
000116 2074      	.DB  0x20,0x0,0x31,0x2E,0x53,0x65,0x74,0x20
000117 6954
000118 656d
000119 2020
00011a 203c      	.DB  0x54,0x69,0x6D,0x65,0x20,0x20,0x3C,0x20
00011b 2020
00011c 2020
00011d 2020
00011e 3200      	.DB  0x20,0x20,0x20,0x20,0x20,0x20,0x0,0x32
00011f 542e
000120 6d69
000121 2065
000122 7954      	.DB  0x2E,0x54,0x69,0x6D,0x65,0x20,0x54,0x79
000123 6570
000124 2020
000125 2020
000126 2020      	.DB  0x70,0x65,0x20,0x20,0x20,0x20,0x20,0x20
000127 2020
000128 3100
000129 532e
00012a 7465      	.DB  0x20,0x20,0x0,0x31,0x2E,0x53,0x65,0x74
00012b 5420
00012c 6d69
00012d 2065
00012e 2020      	.DB  0x20,0x54,0x69,0x6D,0x65,0x20,0x20,0x20
00012f 2020
000130 2020
000131 2020
000132 3200      	.DB  0x20,0x20,0x20,0x20,0x20,0x20,0x0,0x32
000133 542e
000134 6d69
000135 2065
000136 7954      	.DB  0x2E,0x54,0x69,0x6D,0x65,0x20,0x54,0x79
000137 6570
000138 3c20
000139 2020
00013a 2020      	.DB  0x70,0x65,0x20,0x3C,0x20,0x20,0x20,0x20
00013b 2020
00013c 0020
00013d 2020
00013e 2020      	.DB  0x20,0x20,0x20,0x0,0x20,0x20,0x20,0x20
00013f 5320
000140 7465
000141 5420
000142 6d69      	.DB  0x20,0x53,0x65,0x74,0x20,0x54,0x69,0x6D
000143 2065
000144 203a
000145 2020
000146 0020      	.DB  0x65,0x20,0x3A,0x20,0x20,0x20,0x20,0x0
000147 6c63
000148 636f
000149 206b
00014a 6f6d      	.DB  0x63,0x6C,0x6F,0x63,0x6B,0x20,0x6D,0x6F
00014b 6564
00014c 323a
00014d 6834
00014e 312f      	.DB  0x64,0x65,0x3A,0x32,0x34,0x68,0x2F,0x31
00014f 6832
000150 003f
000151 2020
000152 2020      	.DB  0x32,0x68,0x3F,0x0,0x20,0x20,0x20,0x20
000153 323c
000154 6834
000155 203e
000156 2020      	.DB  0x3C,0x32,0x34,0x68,0x3E,0x20,0x20,0x20
000157 3231
000158 2068
000159 2020
00015a 2020      	.DB  0x31,0x32,0x68,0x20,0x20,0x20,0x20,0x20
00015b 2000
00015c 2020
00015d 2020
00015e 3432      	.DB  0x0,0x20,0x20,0x20,0x20,0x20,0x32,0x34
00015f 2068
000160 2020
000161 313c
000162 6832      	.DB  0x68,0x20,0x20,0x20,0x3C,0x31,0x32,0x68
000163 203e
000164 2020
000165 0020
000166 2e31      	.DB  0x3E,0x20,0x20,0x20,0x20,0x0,0x31,0x2E
000167 6144
000168 6574
000169 5420
00016a 7079      	.DB  0x44,0x61,0x74,0x65,0x20,0x54,0x79,0x70
00016b 2065
00016c 203c
00016d 2020
00016e 2020      	.DB  0x65,0x20,0x3C,0x20,0x20,0x20,0x20,0x20
00016f 2020
000170 3200
000171 532e
000172 7465      	.DB  0x20,0x20,0x0,0x32,0x2E,0x53,0x65,0x74
000173 4420
000174 7461
000175 2065
000176 2020      	.DB  0x20,0x44,0x61,0x74,0x65,0x20,0x20,0x20
000177 2020
000178 2020
000179 2020
00017a 3100      	.DB  0x20,0x20,0x20,0x20,0x20,0x20,0x0,0x31
00017b 442e
00017c 7461
00017d 2065
00017e 7954      	.DB  0x2E,0x44,0x61,0x74,0x65,0x20,0x54,0x79
00017f 6570
000180 2020
000181 2020
000182 2020      	.DB  0x70,0x65,0x20,0x20,0x20,0x20,0x20,0x20
000183 2020
000184 3200
000185 532e
000186 7465      	.DB  0x20,0x20,0x0,0x32,0x2E,0x53,0x65,0x74
000187 4420
000188 7461
000189 2065
00018a 3c20      	.DB  0x20,0x44,0x61,0x74,0x65,0x20,0x20,0x3C
00018b 2020
00018c 2020
00018d 2020
00018e 0020      	.DB  0x20,0x20,0x20,0x20,0x20,0x20,0x20,0x0
00018f 6164
000190 6574
000191 7420
000192 7079      	.DB  0x64,0x61,0x74,0x65,0x20,0x74,0x79,0x70
000193 3f65
000194 2000
000195 733c
000196 6168      	.DB  0x65,0x3F,0x0,0x20,0x3C,0x73,0x68,0x61
000197 736d
000198 3e69
000199 2020
00019a 2020      	.DB  0x6D,0x73,0x69,0x3E,0x20,0x20,0x20,0x20
00019b 696d
00019c 616c
00019d 6964
00019e 0020      	.DB  0x6D,0x69,0x6C,0x61,0x64,0x69,0x20,0x0
00019f 2020
0001a0 6873
0001a1 6d61
0001a2 6973      	.DB  0x20,0x20,0x73,0x68,0x61,0x6D,0x73,0x69
0001a3 2020
0001a4 2020
0001a5 6d3c
0001a6 6c69      	.DB  0x20,0x20,0x20,0x20,0x3C,0x6D,0x69,0x6C
0001a7 6461
0001a8 3e69
0001a9 2000
0001aa 2020      	.DB  0x61,0x64,0x69,0x3E,0x0,0x20,0x20,0x20
0001ab 2020
0001ac 6553
0001ad 2074
0001ae 6144      	.DB  0x20,0x20,0x53,0x65,0x74,0x20,0x44,0x61
0001af 6574
0001b0 3a20
0001b1 2020
0001b2 2020      	.DB  0x74,0x65,0x20,0x3A,0x20,0x20,0x20,0x20
0001b3 0020
0001b4 3025
0001b5 7532
0001b6 253a      	.DB  0x20,0x0,0x25,0x30,0x32,0x75,0x3A,0x25
0001b7 3230
0001b8 3a75
0001b9 3025
0001ba 6432      	.DB  0x30,0x32,0x75,0x3A,0x25,0x30,0x32,0x64
0001bb 2000
0001bc 4d50
0001bd 2000
0001be 4d41      	.DB  0x0,0x20,0x50,0x4D,0x0,0x20,0x41,0x4D
0001bf 2500
0001c0 3230
0001c1 2f75
0001c2 3025      	.DB  0x0,0x25,0x30,0x32,0x75,0x2F,0x25,0x30
0001c3 7532
0001c4 252f
0001c5 3230
0001c6 2064      	.DB  0x32,0x75,0x2F,0x25,0x30,0x32,0x64,0x20
0001c7 5400
0001c8 003a
0001c9 3a48
C:\Users\ramona\Desktop\tempclock4laye\List\tempclock4.asm(1245): warning: .cseg .db misalignment - padding zero byte
0001ca 0000      	.DB  0x0,0x54,0x3A,0x0,0x48,0x3A,0x0
                 _0x2000060:
C:\Users\ramona\Desktop\tempclock4laye\List\tempclock4.asm(1247): warning: .cseg .db misalignment - padding zero byte
0001cb 0001      	.DB  0x1
                 _0x2000000:
0001cc 4e2d
0001cd 4e41
0001ce 4900
0001cf 464e      	.DB  0x2D,0x4E,0x41,0x4E,0x0,0x49,0x4E,0x46
C:\Users\ramona\Desktop\tempclock4laye\List\tempclock4.asm(1250): warning: .cseg .db misalignment - padding zero byte
0001d0 0000      	.DB  0x0
                 _0x2040003:
0001d1 c080      	.DB  0x80,0xC0
                 
                 __GLOBAL_INI_TBL:
0001d2 0001      	.DW  0x01
0001d3 0002      	.DW  0x02
0001d4 0078      	.DW  __REG_BIT_VARS*2
                 
0001d5 000c      	.DW  0x0C
0001d6 0340      	.DW  _miladimonth
0001d7 008a      	.DW  _0x7*2
                 
0001d8 000c      	.DW  0x0C
0001d9 034c      	.DW  _shamsimonth
0001da 0096      	.DW  _0x8*2
                 
0001db 0004      	.DW  0x04
0001dc 0160      	.DW  _0x12
0001dd 0101      	.DW  _0x0*2+3
                 
0001de 0004      	.DW  0x04
0001df 0164      	.DW  _0x12+4
0001e0 0105      	.DW  _0x0*2+7
                 
0001e1 0004      	.DW  0x04
0001e2 0168      	.DW  _0x12+8
0001e3 0109      	.DW  _0x0*2+11
                 
0001e4 0004      	.DW  0x04
0001e5 016c      	.DW  _0x12+12
0001e6 010d      	.DW  _0x0*2+15
                 
0001e7 0004      	.DW  0x04
0001e8 0170      	.DW  _0x12+16
0001e9 0111      	.DW  _0x0*2+19
                 
0001ea 0004      	.DW  0x04
0001eb 0174      	.DW  _0x12+20
0001ec 0115      	.DW  _0x0*2+23
                 
0001ed 0004      	.DW  0x04
0001ee 0178      	.DW  _0x12+24
0001ef 0119      	.DW  _0x0*2+27
                 
0001f0 0002      	.DW  0x02
0001f1 017c      	.DW  _0x19
0001f2 011d      	.DW  _0x0*2+31
                 
0001f3 0002      	.DW  0x02
0001f4 017e      	.DW  _0x19+2
0001f5 011d      	.DW  _0x0*2+31
                 
0001f6 0002      	.DW  0x02
0001f7 0180      	.DW  _0x1A
0001f8 011d      	.DW  _0x0*2+31
                 
0001f9 0002      	.DW  0x02
0001fa 0182      	.DW  _0x1A+2
0001fb 011d      	.DW  _0x0*2+31
                 
0001fc 0002      	.DW  0x02
0001fd 0184      	.DW  _0x22
0001fe 01bf      	.DW  _0x0*2+193
                 
0001ff 0002      	.DW  0x02
000200 0186      	.DW  _0x22+2
000201 01c1      	.DW  _0x0*2+195
                 
000202 0015      	.DW  0x15
000203 0188      	.DW  _0x31
000204 01c3      	.DW  _0x0*2+197
                 
000205 0014      	.DW  0x14
000206 019d      	.DW  _0x31+21
000207 01d8      	.DW  _0x0*2+218
                 
000208 0014      	.DW  0x14
000209 01b1      	.DW  _0x31+41
00020a 01ec      	.DW  _0x0*2+238
                 
00020b 0014      	.DW  0x14
00020c 01c5      	.DW  _0x31+61
00020d 0200      	.DW  _0x0*2+258
                 
00020e 0014      	.DW  0x14
00020f 01d9      	.DW  _0x31+81
000210 0214      	.DW  _0x0*2+278
                 
000211 0015      	.DW  0x15
000212 01ed      	.DW  _0x31+101
000213 0228      	.DW  _0x0*2+298
                 
000214 0014      	.DW  0x14
000215 0202      	.DW  _0x31+122
000216 023d      	.DW  _0x0*2+319
                 
000217 0014      	.DW  0x14
000218 0216      	.DW  _0x31+142
000219 0251      	.DW  _0x0*2+339
                 
00021a 0015      	.DW  0x15
00021b 022a      	.DW  _0x31+162
00021c 0265      	.DW  _0x0*2+359
                 
00021d 0014      	.DW  0x14
00021e 023f      	.DW  _0x31+183
00021f 027a      	.DW  _0x0*2+380
                 
000220 0014      	.DW  0x14
000221 0253      	.DW  _0x31+203
000222 028e      	.DW  _0x0*2+400
                 
000223 0015      	.DW  0x15
000224 0267      	.DW  _0x31+223
000225 02a2      	.DW  _0x0*2+420
                 
000226 0015      	.DW  0x15
000227 027c      	.DW  _0x31+244
000228 02b7      	.DW  _0x0*2+441
                 
000229 0015      	.DW  0x15
00022a 0291      	.DW  _0x31+265
00022b 02cc      	.DW  _0x0*2+462
                 
00022c 0014      	.DW  0x14
00022d 02a6      	.DW  _0x31+286
00022e 02e1      	.DW  _0x0*2+483
                 
00022f 0014      	.DW  0x14
000230 02ba      	.DW  _0x31+306
000231 02f5      	.DW  _0x0*2+503
                 
000232 0015      	.DW  0x15
000233 02ce      	.DW  _0x31+326
000234 0309      	.DW  _0x0*2+523
                 
000235 000b      	.DW  0x0B
000236 02e3      	.DW  _0x31+347
000237 031e      	.DW  _0x0*2+544
                 
000238 0015      	.DW  0x15
000239 02ee      	.DW  _0x31+358
00023a 0329      	.DW  _0x0*2+555
                 
00023b 0015      	.DW  0x15
00023c 0303      	.DW  _0x31+379
00023d 033e      	.DW  _0x0*2+576
                 
00023e 0015      	.DW  0x15
00023f 0318      	.DW  _0x31+400
000240 0353      	.DW  _0x0*2+597
                 
000241 0004      	.DW  0x04
000242 032d      	.DW  _0x178
000243 0377      	.DW  _0x0*2+633
                 
000244 0004      	.DW  0x04
000245 0331      	.DW  _0x178+4
000246 037b      	.DW  _0x0*2+637
                 
000247 0003      	.DW  0x03
000248 0335      	.DW  _0x178+8
000249 038f      	.DW  _0x0*2+657
                 
00024a 0003      	.DW  0x03
00024b 0338      	.DW  _0x178+11
00024c 0392      	.DW  _0x0*2+660
                 
00024d 0009      	.DW  0x09
00024e 0004      	.DW  0x04
00024f 00f4      	.DW  _0x189*2
                 
000250 0001      	.DW  0x01
000251 0358      	.DW  __seed_G100
000252 0396      	.DW  _0x2000060*2
                 
000253 0002      	.DW  0x02
000254 035c      	.DW  __base_y_G102
000255 03a2      	.DW  _0x2040003*2
                 
                 _0xFFFFFFFF:
000256 0000      	.DW  0
                 
                 __RESET:
000257 94f8      	CLI
000258 27ee      	CLR  R30
000259 bbec      	OUT  EECR,R30
                 
                 ;INTERRUPT VECTORS ARE PLACED
                 ;AT THE START OF FLASH
00025a e0f1      	LDI  R31,1
00025b bffb      	OUT  GICR,R31
00025c bfeb      	OUT  GICR,R30
00025d bfe5      	OUT  MCUCR,R30
                 
                 ;DISABLE WATCHDOG
00025e e1f8      	LDI  R31,0x18
00025f bdf1      	OUT  WDTCR,R31
000260 bde1      	OUT  WDTCR,R30
                 
                 ;CLEAR R2-R14
000261 e08d      	LDI  R24,(14-2)+1
000262 e0a2      	LDI  R26,2
000263 27bb      	CLR  R27
                 __CLEAR_REG:
000264 93ed      	ST   X+,R30
000265 958a      	DEC  R24
000266 f7e9      	BRNE __CLEAR_REG
                 
                 ;CLEAR SRAM
000267 e080      	LDI  R24,LOW(__CLEAR_SRAM_SIZE)
000268 e094      	LDI  R25,HIGH(__CLEAR_SRAM_SIZE)
000269 e6a0      	LDI  R26,__SRAM_START
                 __CLEAR_SRAM:
00026a 93ed      	ST   X+,R30
00026b 9701      	SBIW R24,1
00026c f7e9      	BRNE __CLEAR_SRAM
                 
                 ;GLOBAL VARIABLES INITIALIZATION
00026d eae4      	LDI  R30,LOW(__GLOBAL_INI_TBL*2)
00026e e0f3      	LDI  R31,HIGH(__GLOBAL_INI_TBL*2)
                 __GLOBAL_INI_NEXT:
00026f 9185      	LPM  R24,Z+
000270 9195      	LPM  R25,Z+
000271 9700      	SBIW R24,0
000272 f061      	BREQ __GLOBAL_INI_END
000273 91a5      	LPM  R26,Z+
000274 91b5      	LPM  R27,Z+
000275 9005      	LPM  R0,Z+
000276 9015      	LPM  R1,Z+
000277 01bf      	MOVW R22,R30
000278 01f0      	MOVW R30,R0
                 __GLOBAL_INI_LOOP:
000279 9005      	LPM  R0,Z+
00027a 920d      	ST   X+,R0
00027b 9701      	SBIW R24,1
00027c f7e1      	BRNE __GLOBAL_INI_LOOP
00027d 01fb      	MOVW R30,R22
00027e cff0      	RJMP __GLOBAL_INI_NEXT
                 __GLOBAL_INI_END:
                 
                 ;HARDWARE STACK POINTER INITIALIZATION
00027f e5ef      	LDI  R30,LOW(__SRAM_END-__HEAP_SIZE)
000280 bfed      	OUT  SPL,R30
000281 e0e4      	LDI  R30,HIGH(__SRAM_END-__HEAP_SIZE)
000282 bfee      	OUT  SPH,R30
                 
                 ;DATA STACK POINTER INITIALIZATION
000283 e6c0      	LDI  R28,LOW(__SRAM_START+__DSTACK_SIZE)
000284 e0d1      	LDI  R29,HIGH(__SRAM_START+__DSTACK_SIZE)
                 
000285 c4ad      	RJMP _main
                 
                 	.ESEG
                 	.ORG 0
                 
                 	.DSEG
                 	.ORG 0x160
                 
                 	.CSEG
                 ;/*****************************************************
                 ;This program was produced by the
                 ;CodeWizardAVR V2.05.3 Standard
                 ;Project :
                 ;Version :
                 ;Date    : 10/23/2017
                 ;Author  : mak
                 ;Company :
                 ;Comments:
                 ;
                 ;
                 ;Chip type               : ATmega8
                 ;Program type            : Application
                 ;AVR Core Clock frequency: 1.000000 MHz
                 ;Memory model            : Small
                 ;External RAM size       : 0
                 ;Data Stack size         : 256
                 ;*****************************************************/
                 ;#include <stdlib.h>
                 ;#include <mega8.h>
                 	#ifndef __SLEEP_DEFINED__
                 	#define __SLEEP_DEFINED__
                 	.EQU __se_bit=0x80
                 	.EQU __sm_mask=0x70
                 	.EQU __sm_powerdown=0x20
                 	.EQU __sm_powersave=0x30
                 	.EQU __sm_standby=0x60
                 	.EQU __sm_ext_standby=0x70
                 	.EQU __sm_adc_noise_red=0x10
                 	.SET power_ctrl_reg=mcucr
                 	#endif
                 ;#include <i2c.h>
                 ;#include <ds1307.h>
                 ;#include <alcd.h>
                 ;#include <delay.h>
                 ;#include <stdio.h>
                 ;#define DHT22_PIN          PINC.1       //           
                 ;#define DHT22_PORT         PORTC.1
                 ;#define DHT22_DDR          DDRC.1
                 ;#define up  PINC.2==0
                 ;#define down  PINC.3==0
                 ;#define ok  PINC.4==0
                 ;#define set  PIND.2==0
                 ;#define del  PINC.5==0
                 ;#define DHT22_INPUT_MODE   DHT22_DDR=0;
                 ;#define DHT22_OUTPUT_MODE  DHT22_DDR=1;
                 ;#define DHT22_LOW          DHT22_PORT=0;
                 ;#define DHT22_HIGH         DHT22_PORT=1;
                 ;#define DHT22_READ         DHT22_PIN
                 ;
                 ;// Declare your global variables here
                 ;unsigned char mah=0,rooz=0,day=0,month=0,year=0;
                 ;bit resett=0;
                 ;int sal=0;
                 ;char strr[4];
                 ;float minT=18,maxT=27,minH=15,maxH=40;
                 
                 	.DSEG
                 ;unsigned char hour,miin,sec=0,week_day;
                 ;unsigned char miladimonth[12]={31,28,31,30,31,30,31,31,30,31,30,31};
                 ;unsigned char shamsimonth[12]={31,31,31,31,31,31,30,30,30,30,30,29};
                 ;flash unsigned char char0[8]={4,14,31,31,0,0,0};  //  
                 ;flash unsigned char char1[8]={0,0,0,31,31,14,4};   //  
                 ;//flash unsigned char char2[8]={4,14,31,0,31,14,4};
                 ;
                 ;flash unsigned char char3[8]={4,10,0,21,31,0,0,0};  //  
                 ;flash unsigned char char4[8]={0,2,0,5,31,0,8,0};  //  
                 ;flash unsigned char char5[8]={0,2,14,14,3,0,0,0};   //  
                 ;
                 ;flash unsigned char char6[8]={0,4,10,1,31,0,4,0};   //  
                 ;flash unsigned char char7[8]={0,0,0,0,31,10,14,0};     // 
                 ;flash unsigned char char8[8]={0,31,14,4,31,0,0,0};   //  
                 ;////////////////////////////////////////////////////////
                 ;void define_char(unsigned char flash *pc,unsigned char char_code){
                 ; 0000 003D void define_char(unsigned char flash *pc,unsigned char char_code){
                 
                 	.CSEG
                 _define_char:
                 ; 0000 003E     unsigned char i,a;
                 ; 0000 003F     a=(char_code<<3)|0x40;
000286 93aa      	ST   -Y,R26
000287 dd5e      	RCALL __SAVELOCR2
                 ;	*pc -> Y+3
                 ;	char_code -> Y+2
                 ;	i -> R17
                 ;	a -> R16
000288 81ea      	LDD  R30,Y+2
000289 0fee      	LSL  R30
00028a 0fee      	LSL  R30
00028b 0fee      	LSL  R30
00028c 64e0      	ORI  R30,0x40
00028d 2f0e      	MOV  R16,R30
                 ; 0000 0040     for(i=0;i<8;i++)
00028e e010      	LDI  R17,LOW(0)
                 _0xA:
00028f 3018      	CPI  R17,8
000290 f460      	BRSH _0xB
                 ; 0000 0041         lcd_write_byte(a++,*pc++);
000291 930a      	ST   -Y,R16
000292 9503      	INC  R16
000293 81ec      	LDD  R30,Y+4
000294 81fd      	LDD  R31,Y+4+1
000295 9631      	ADIW R30,1
000296 83ec      	STD  Y+4,R30
000297 83fd      	STD  Y+4+1,R31
000298 9731      	SBIW R30,1
000299 91a4      	LPM  R26,Z
00029a d695      	RCALL _lcd_write_byte
00029b 5f1f      	SUBI R17,-1
00029c cff2      	RJMP _0xA
                 _0xB:
                 ; 0000 0042 }
00029d c738      	RJMP _0x2100004
                 ;void weekdayshow(void)
                 ; 0000 0044  {
                 _weekdayshow:
                 ; 0000 0045   char str_week_day[1];
                 ; 0000 0046 
                 ; 0000 0047   if(rtc_read(0x08) & 0x02){
00029e 9721      	SBIW R28,1
                 ;	str_week_day -> Y+0
00029f d8f4      	RCALL SUBOPT_0x0
0002a0 70e2      	ANDI R30,LOW(0x2)
0002a1 f0f1      	BREQ _0xC
                 ; 0000 0048     if(week_day <6){
0002a2 d8f3      	RCALL SUBOPT_0x1
0002a3 30a6      	CPI  R26,LOW(0x6)
0002a4 f458      	BRSH _0xD
                 ; 0000 0049         sprintf(str_week_day,"%d",week_day);
0002a5 d8f3      	RCALL SUBOPT_0x2
                +
0002a6 efee     +LDI R30 , LOW ( 2 * _0x0 + ( 0 ) )
0002a7 e0f0     +LDI R31 , HIGH ( 2 * _0x0 + ( 0 ) )
                 	__POINTW1FN _0x0,0
0002a8 d8f4      	RCALL SUBOPT_0x3
0002a9 d8f6      	RCALL SUBOPT_0x4
0002aa d8f8      	RCALL SUBOPT_0x5
0002ab e084      	LDI  R24,4
0002ac d844      	RCALL _sprintf
0002ad 9628      	ADIW R28,8
                 ; 0000 004A         lcd_putchar(5);
0002ae d8f9      	RCALL SUBOPT_0x6
                 ; 0000 004B         lcd_putchar(4);
                 ; 0000 004C         lcd_putchar(3);
                 ; 0000 004D         lcd_puts(str_week_day);
0002af d8fe      	RCALL SUBOPT_0x7
                 ; 0000 004E     }
                 ; 0000 004F     if(week_day==7){  //shande
                 _0xD:
0002b0 d8e5      	RCALL SUBOPT_0x1
0002b1 30a7      	CPI  R26,LOW(0x7)
0002b2 f409      	BRNE _0xE
                 ; 0000 0050         lcd_putchar(5);
0002b3 d8f4      	RCALL SUBOPT_0x6
                 ; 0000 0051         lcd_putchar(4);
                 ; 0000 0052         lcd_putchar(3);
                 ; 0000 0053     }
                 ; 0000 0054     if(week_day==6){     //jome
                 _0xE:
0002b4 d8e1      	RCALL SUBOPT_0x1
0002b5 30a6      	CPI  R26,LOW(0x6)
0002b6 f441      	BRNE _0xF
                 ; 0000 0055         lcd_putchar(5);
0002b7 e0a5      	LDI  R26,LOW(5)
0002b8 d69c      	RCALL _lcd_putchar
                 ; 0000 0056         lcd_putchar(8);
0002b9 e0a8      	LDI  R26,LOW(8)
0002ba d69a      	RCALL _lcd_putchar
                 ; 0000 0057         lcd_putchar(7);
0002bb e0a7      	LDI  R26,LOW(7)
0002bc d698      	RCALL _lcd_putchar
                 ; 0000 0058         lcd_putchar(6);
0002bd e0a6      	LDI  R26,LOW(6)
0002be d696      	RCALL _lcd_putchar
                 ; 0000 0059      }
                 ; 0000 005A   }else{
                 _0xF:
0002bf c02a      	RJMP _0x10
                 _0xC:
                 ; 0000 005B         if(week_day==1){
0002c0 d8d5      	RCALL SUBOPT_0x1
0002c1 30a1      	CPI  R26,LOW(0x1)
0002c2 f419      	BRNE _0x11
                 ; 0000 005C             lcd_puts("sun");
                +
0002c3 e6a0     +LDI R26 , LOW ( _0x12 + ( 0 ) )
0002c4 e0b1     +LDI R27 , HIGH ( _0x12 + ( 0 ) )
                 	__POINTW2MN _0x12,0
0002c5 d6ab      	RCALL _lcd_puts
                 ; 0000 005D         }
                 ; 0000 005E         if(week_day==2){
                 _0x11:
0002c6 d8cf      	RCALL SUBOPT_0x1
0002c7 30a2      	CPI  R26,LOW(0x2)
0002c8 f419      	BRNE _0x13
                 ; 0000 005F             lcd_puts("mon");
                +
0002c9 e6a4     +LDI R26 , LOW ( _0x12 + ( 4 ) )
0002ca e0b1     +LDI R27 , HIGH ( _0x12 + ( 4 ) )
                 	__POINTW2MN _0x12,4
0002cb d6a5      	RCALL _lcd_puts
                 ; 0000 0060         }
                 ; 0000 0061         if(week_day==3){
                 _0x13:
0002cc d8c9      	RCALL SUBOPT_0x1
0002cd 30a3      	CPI  R26,LOW(0x3)
0002ce f419      	BRNE _0x14
                 ; 0000 0062             lcd_puts("tue");
                +
0002cf e6a8     +LDI R26 , LOW ( _0x12 + ( 8 ) )
0002d0 e0b1     +LDI R27 , HIGH ( _0x12 + ( 8 ) )
                 	__POINTW2MN _0x12,8
0002d1 d69f      	RCALL _lcd_puts
                 ; 0000 0063         }
                 ; 0000 0064         if(week_day==4){lcd_puts("wed");}
                 _0x14:
0002d2 d8c3      	RCALL SUBOPT_0x1
0002d3 30a4      	CPI  R26,LOW(0x4)
0002d4 f419      	BRNE _0x15
                +
0002d5 e6ac     +LDI R26 , LOW ( _0x12 + ( 12 ) )
0002d6 e0b1     +LDI R27 , HIGH ( _0x12 + ( 12 ) )
                 	__POINTW2MN _0x12,12
0002d7 d699      	RCALL _lcd_puts
                 ; 0000 0065         if(week_day==5){lcd_puts("thu");}
                 _0x15:
0002d8 d8bd      	RCALL SUBOPT_0x1
0002d9 30a5      	CPI  R26,LOW(0x5)
0002da f419      	BRNE _0x16
                +
0002db e7a0     +LDI R26 , LOW ( _0x12 + ( 16 ) )
0002dc e0b1     +LDI R27 , HIGH ( _0x12 + ( 16 ) )
                 	__POINTW2MN _0x12,16
0002dd d693      	RCALL _lcd_puts
                 ; 0000 0066         if(week_day==6){lcd_puts("fri");}
                 _0x16:
0002de d8b7      	RCALL SUBOPT_0x1
0002df 30a6      	CPI  R26,LOW(0x6)
0002e0 f419      	BRNE _0x17
                +
0002e1 e7a4     +LDI R26 , LOW ( _0x12 + ( 20 ) )
0002e2 e0b1     +LDI R27 , HIGH ( _0x12 + ( 20 ) )
                 	__POINTW2MN _0x12,20
0002e3 d68d      	RCALL _lcd_puts
                 ; 0000 0067         if(week_day==7){lcd_puts("sat");}
                 _0x17:
0002e4 d8b1      	RCALL SUBOPT_0x1
0002e5 30a7      	CPI  R26,LOW(0x7)
0002e6 f419      	BRNE _0x18
                +
0002e7 e7a8     +LDI R26 , LOW ( _0x12 + ( 24 ) )
0002e8 e0b1     +LDI R27 , HIGH ( _0x12 + ( 24 ) )
                 	__POINTW2MN _0x12,24
0002e9 d687      	RCALL _lcd_puts
                 ; 0000 0068     }
                 _0x18:
                 _0x10:
                 ; 0000 0069  }
0002ea c6bf      	RJMP _0x2100005
                 
                 	.DSEG
                 _0x12:
000160           	.BYTE 0x1C
                 ;
                 ;void styleup(void){
                 ; 0000 006B void styleup(void){
                 
                 	.CSEG
                 _styleup:
                 ; 0000 006C     lcd_gotoxy(19,1);
0002eb d8c4      	RCALL SUBOPT_0x8
                 ; 0000 006D     lcd_puts(" ");
                +
0002ec e7ac     +LDI R26 , LOW ( _0x19 + ( 0 ) )
0002ed e0b1     +LDI R27 , HIGH ( _0x19 + ( 0 ) )
                 	__POINTW2MN _0x19,0
0002ee d8c5      	RCALL SUBOPT_0x9
                 ; 0000 006E     delay_ms(50);
                 ; 0000 006F     lcd_gotoxy(19,1);
                 ; 0000 0070     lcd_putchar(1);
0002ef d8c9      	RCALL SUBOPT_0xA
                 ; 0000 0071     delay_ms(50);
0002f0 d8ca      	RCALL SUBOPT_0xB
                 ; 0000 0072     lcd_gotoxy(19,1);
0002f1 d8be      	RCALL SUBOPT_0x8
                 ; 0000 0073     lcd_puts(" ");
                +
0002f2 e7ae     +LDI R26 , LOW ( _0x19 + ( 2 ) )
0002f3 e0b1     +LDI R27 , HIGH ( _0x19 + ( 2 ) )
                 	__POINTW2MN _0x19,2
0002f4 d8bf      	RCALL SUBOPT_0x9
                 ; 0000 0074     delay_ms(50);
                 ; 0000 0075     lcd_gotoxy(19,1);
                 ; 0000 0076     lcd_putchar(1);
0002f5 e0a1      	LDI  R26,LOW(1)
0002f6 c00f      	RJMP _0x210000C
                 ; 0000 0077     delay_ms(50);
                 ; 0000 0078 }
                 
                 	.DSEG
                 _0x19:
00017c           	.BYTE 0x4
                 ;void styledown(void){
                 ; 0000 0079 void styledown(void){
                 
                 	.CSEG
                 _styledown:
                 ; 0000 007A     lcd_gotoxy(19,0);
0002f7 d8c6      	RCALL SUBOPT_0xC
                 ; 0000 007B     lcd_puts(" ");
                +
0002f8 e8a0     +LDI R26 , LOW ( _0x1A + ( 0 ) )
0002f9 e0b1     +LDI R27 , HIGH ( _0x1A + ( 0 ) )
                 	__POINTW2MN _0x1A,0
0002fa d676      	RCALL _lcd_puts
                 ; 0000 007C     delay_ms(50);
0002fb d8bf      	RCALL SUBOPT_0xB
                 ; 0000 007D     lcd_gotoxy(19,0);
0002fc d8c1      	RCALL SUBOPT_0xC
                 ; 0000 007E     lcd_putchar(0);
0002fd d8c4      	RCALL SUBOPT_0xD
                 ; 0000 007F     delay_ms(50);
0002fe d8bc      	RCALL SUBOPT_0xB
                 ; 0000 0080     lcd_gotoxy(19,0);
0002ff d8be      	RCALL SUBOPT_0xC
                 ; 0000 0081     lcd_puts(" ");
                +
000300 e8a2     +LDI R26 , LOW ( _0x1A + ( 2 ) )
000301 e0b1     +LDI R27 , HIGH ( _0x1A + ( 2 ) )
                 	__POINTW2MN _0x1A,2
000302 d66e      	RCALL _lcd_puts
                 ; 0000 0082     delay_ms(50);
000303 d8b7      	RCALL SUBOPT_0xB
                 ; 0000 0083     lcd_gotoxy(19,0);
000304 d8b9      	RCALL SUBOPT_0xC
                 ; 0000 0084     lcd_putchar(0);
000305 e0a0      	LDI  R26,LOW(0)
                 _0x210000C:
000306 d64e      	RCALL _lcd_putchar
                 ; 0000 0085     delay_ms(50);
000307 d8b3      	RCALL SUBOPT_0xB
                 ; 0000 0086 }
000308 9508      	RET
                 
                 	.DSEG
                 _0x1A:
000180           	.BYTE 0x4
                 ;void timesetshow(char i){
                 ; 0000 0087 void timesetshow(char i){
                 
                 	.CSEG
                 _timesetshow:
                 ; 0000 0088 char strrr[4];
                 ; 0000 0089 lcd_gotoxy(0,1);
000309 d8ba      	RCALL SUBOPT_0xE
                 ;	i -> Y+4
                 ;	strrr -> Y+0
                 ; 0000 008A if(i==0){sprintf(strrr,"   <%02d>: %02d : %02d ",hour,miin,sec);}
00030a f439      	BRNE _0x1B
00030b d88d      	RCALL SUBOPT_0x2
                +
00030c e1ef     +LDI R30 , LOW ( 2 * _0x0 + ( 33 ) )
00030d e0f1     +LDI R31 , HIGH ( 2 * _0x0 + ( 33 ) )
                 	__POINTW1FN _0x0,33
00030e d8be      	RCALL SUBOPT_0xF
00030f d8c0      	RCALL SUBOPT_0x10
000310 d8c1      	RCALL SUBOPT_0x11
000311 d8c2      	RCALL SUBOPT_0x12
                 ; 0000 008B if(i==1){sprintf(strrr,"    %02d :<%02d>: %02d ",hour,miin,sec);}
                 _0x1B:
000312 81ac      	LDD  R26,Y+4
000313 30a1      	CPI  R26,LOW(0x1)
000314 f439      	BRNE _0x1C
000315 d883      	RCALL SUBOPT_0x2
                +
000316 e3e7     +LDI R30 , LOW ( 2 * _0x0 + ( 57 ) )
000317 e0f1     +LDI R31 , HIGH ( 2 * _0x0 + ( 57 ) )
                 	__POINTW1FN _0x0,57
000318 d8b4      	RCALL SUBOPT_0xF
000319 d8b6      	RCALL SUBOPT_0x10
00031a d8b7      	RCALL SUBOPT_0x11
00031b d8b8      	RCALL SUBOPT_0x12
                 ; 0000 008C if(i==2){sprintf(strrr,"    %02d : %02d :<%02d> ",hour,miin,sec);}
                 _0x1C:
00031c 81ac      	LDD  R26,Y+4
00031d 30a2      	CPI  R26,LOW(0x2)
00031e f439      	BRNE _0x1D
00031f d879      	RCALL SUBOPT_0x2
                +
000320 e4ef     +LDI R30 , LOW ( 2 * _0x0 + ( 81 ) )
000321 e0f1     +LDI R31 , HIGH ( 2 * _0x0 + ( 81 ) )
                 	__POINTW1FN _0x0,81
000322 d8aa      	RCALL SUBOPT_0xF
000323 d8ac      	RCALL SUBOPT_0x10
000324 d8ad      	RCALL SUBOPT_0x11
000325 d8ae      	RCALL SUBOPT_0x12
                 ; 0000 008D lcd_puts(strrr);
                 _0x1D:
000326 d887      	RCALL SUBOPT_0x7
                 ; 0000 008E }
000327 c6af      	RJMP _0x2100003
                 ;void datesetshow(char i){
                 ; 0000 008F void datesetshow(char i){
                 _datesetshow:
                 ; 0000 0090 char strrr[4];
                 ; 0000 0091 lcd_gotoxy(0,1);
000328 d89b      	RCALL SUBOPT_0xE
                 ;	i -> Y+4
                 ;	strrr -> Y+0
                 ; 0000 0092 if(i==0){
000329 f449      	BRNE _0x1E
                 ; 0000 0093     sprintf(strrr,"<%02u>/ %02u / %02d  ",year,month,day);
00032a d86e      	RCALL SUBOPT_0x2
                +
00032b e6e8     +LDI R30 , LOW ( 2 * _0x0 + ( 106 ) )
00032c e0f1     +LDI R31 , HIGH ( 2 * _0x0 + ( 106 ) )
                 	__POINTW1FN _0x0,106
00032d d8aa      	RCALL SUBOPT_0x13
00032e d8ac      	RCALL SUBOPT_0x14
00032f d8ad      	RCALL SUBOPT_0x15
000330 d8a3      	RCALL SUBOPT_0x12
                 ; 0000 0094     lcd_puts(strrr);
000331 d87c      	RCALL SUBOPT_0x7
                 ; 0000 0095     weekdayshow();
000332 df6b      	RCALL _weekdayshow
                 ; 0000 0096     }
                 ; 0000 0097 if(i==1){
                 _0x1E:
000333 81ac      	LDD  R26,Y+4
000334 30a1      	CPI  R26,LOW(0x1)
000335 f449      	BRNE _0x1F
                 ; 0000 0098     sprintf(strrr," %02u /<%02u>/ %02d  ",year,month,day);
000336 d862      	RCALL SUBOPT_0x2
                +
000337 e7ee     +LDI R30 , LOW ( 2 * _0x0 + ( 128 ) )
000338 e0f1     +LDI R31 , HIGH ( 2 * _0x0 + ( 128 ) )
                 	__POINTW1FN _0x0,128
000339 d89e      	RCALL SUBOPT_0x13
00033a d8a0      	RCALL SUBOPT_0x14
00033b d8a1      	RCALL SUBOPT_0x15
00033c d897      	RCALL SUBOPT_0x12
                 ; 0000 0099     lcd_puts(strrr);
00033d d870      	RCALL SUBOPT_0x7
                 ; 0000 009A     weekdayshow();
00033e df5f      	RCALL _weekdayshow
                 ; 0000 009B     }
                 ; 0000 009C if(i==2){
                 _0x1F:
00033f 81ac      	LDD  R26,Y+4
000340 30a2      	CPI  R26,LOW(0x2)
000341 f449      	BRNE _0x20
                 ; 0000 009D     sprintf(strrr," %02u / %02u /<%02d> ",year,month,day);
000342 d856      	RCALL SUBOPT_0x2
                +
000343 e9e4     +LDI R30 , LOW ( 2 * _0x0 + ( 150 ) )
000344 e0f1     +LDI R31 , HIGH ( 2 * _0x0 + ( 150 ) )
                 	__POINTW1FN _0x0,150
000345 d892      	RCALL SUBOPT_0x13
000346 d894      	RCALL SUBOPT_0x14
000347 d895      	RCALL SUBOPT_0x15
000348 d88b      	RCALL SUBOPT_0x12
                 ; 0000 009E     lcd_puts(strrr);
000349 d864      	RCALL SUBOPT_0x7
                 ; 0000 009F     weekdayshow();
00034a df53      	RCALL _weekdayshow
                 ; 0000 00A0         }
                 ; 0000 00A1 if(i==3){
                 _0x20:
00034b 81ac      	LDD  R26,Y+4
00034c 30a3      	CPI  R26,LOW(0x3)
00034d f479      	BRNE _0x21
                 ; 0000 00A2     sprintf(strrr," %02u / %02u / %02d ",year,month,day);
00034e d84a      	RCALL SUBOPT_0x2
                +
00034f eaea     +LDI R30 , LOW ( 2 * _0x0 + ( 172 ) )
000350 e0f1     +LDI R31 , HIGH ( 2 * _0x0 + ( 172 ) )
                 	__POINTW1FN _0x0,172
000351 d886      	RCALL SUBOPT_0x13
000352 d888      	RCALL SUBOPT_0x14
000353 d889      	RCALL SUBOPT_0x15
000354 d87f      	RCALL SUBOPT_0x12
                 ; 0000 00A3     lcd_puts(strrr);
000355 d858      	RCALL SUBOPT_0x7
                 ; 0000 00A4     lcd_puts("<");
                +
000356 e8a4     +LDI R26 , LOW ( _0x22 + ( 0 ) )
000357 e0b1     +LDI R27 , HIGH ( _0x22 + ( 0 ) )
                 	__POINTW2MN _0x22,0
000358 d618      	RCALL _lcd_puts
                 ; 0000 00A5     weekdayshow();
000359 df44      	RCALL _weekdayshow
                 ; 0000 00A6     lcd_puts(">");
                +
00035a e8a6     +LDI R26 , LOW ( _0x22 + ( 2 ) )
00035b e0b1     +LDI R27 , HIGH ( _0x22 + ( 2 ) )
                 	__POINTW2MN _0x22,2
00035c d614      	RCALL _lcd_puts
                 ; 0000 00A7 }
                 ; 0000 00A8 }
                 _0x21:
00035d c679      	RJMP _0x2100003
                 
                 	.DSEG
                 _0x22:
000184           	.BYTE 0x4
                 ;////////////////////////////////////////////////////////
                 ;char leap(char y){
                 ; 0000 00AA char leap(char y){
                 
                 	.CSEG
                 _leap:
                 ; 0000 00AB 	if (((((2000+y)%4)==0)&&(((2000+y)%100)!=0))||((((2000+y)%100)==0)&&(((2000+y)%400)==0)))
00035e 93aa      	ST   -Y,R26
                 ;	y -> Y+0
00035f d87f      	RCALL SUBOPT_0x16
000360 53e0      	SUBI R30,LOW(-2000)
000361 4ff8      	SBCI R31,HIGH(-2000)
000362 01bf      	MOVW R22,R30
000363 01df      	MOVW R26,R30
000364 e0e4      	LDI  R30,LOW(4)
000365 e0f0      	LDI  R31,HIGH(4)
000366 d87b      	RCALL SUBOPT_0x17
000367 f411      	BRNE _0x24
000368 d87c      	RCALL SUBOPT_0x18
000369 f441      	BRNE _0x26
                 _0x24:
00036a d87a      	RCALL SUBOPT_0x18
00036b f429      	BRNE _0x27
00036c 01db      	MOVW R26,R22
00036d e9e0      	LDI  R30,LOW(400)
00036e e0f1      	LDI  R31,HIGH(400)
00036f d872      	RCALL SUBOPT_0x17
000370 f009      	BREQ _0x26
                 _0x27:
000371 c002      	RJMP _0x23
                 _0x26:
                 ; 0000 00AC 	return 1;
000372 e0e1      	LDI  R30,LOW(1)
000373 c636      	RJMP _0x2100005
                 ; 0000 00AD }
                 _0x23:
000374 c635      	RJMP _0x2100005
                 ;//////////////////////////////////////////////////////////////
                 ;// External Interrupt 0 service routine
                 ;interrupt [EXT_INT0] void ext_int0_isr(void)
                 ; 0000 00B1 {
                 _ext_int0_isr:
000375 920a      	ST   -Y,R0
000376 921a      	ST   -Y,R1
000377 92fa      	ST   -Y,R15
000378 936a      	ST   -Y,R22
000379 937a      	ST   -Y,R23
00037a 938a      	ST   -Y,R24
00037b 939a      	ST   -Y,R25
00037c 93aa      	ST   -Y,R26
00037d 93ba      	ST   -Y,R27
00037e 93ea      	ST   -Y,R30
00037f 93fa      	ST   -Y,R31
000380 b7ef      	IN   R30,SREG
000381 93ea      	ST   -Y,R30
                 ; 0000 00B2     char i=0,strr[4];
                 ; 0000 00B3     bit choice=0,choice2=0;
                 ; 0000 00B4     char page=0;
                 ; 0000 00B5     while(set);
000382 9724      	SBIW R28,4
000383 dc62      	RCALL __SAVELOCR2
                 ;	i -> R17
                 ;	strr -> Y+2
                 ;	choice -> R15.0
                 ;	choice2 -> R15.1
                 ;	page -> R16
000384 24ff      	CLR  R15
000385 e010      	LDI  R17,0
000386 e000      	LDI  R16,0
                 _0x2A:
000387 9b82      	SBIS 0x10,2
000388 cffe      	RJMP _0x2A
                 ; 0000 00B6     resett=0;
000389 94e8      	CLT
00038a f820      	BLD  R2,0
                 ; 0000 00B7     #asm("cli")
00038b 94f8      	cli
                 ; 0000 00B8     /*
                 ; 0000 00B9     lcd_clear();
                 ; 0000 00BA     lcd_gotoxy(0,0);
                 ; 0000 00BB     lcd_puts("setting.");
                 ; 0000 00BC     delay_ms(350);
                 ; 0000 00BD     lcd_puts(".");
                 ; 0000 00BE     delay_ms(350);
                 ; 0000 00BF     lcd_puts(".");
                 ; 0000 00C0     delay_ms(350);
                 ; 0000 00C1     lcd_puts(".");
                 ; 0000 00C2     delay_ms(300);
                 ; 0000 00C3     lcd_clear();
                 ; 0000 00C4     */
                 ; 0000 00C5     define_char(char0,0);   // 
00038c e2e6      	LDI  R30,LOW(_char0*2)
00038d e0f0      	LDI  R31,HIGH(_char0*2)
00038e d80e      	RCALL SUBOPT_0x3
00038f e0a0      	LDI  R26,LOW(0)
000390 def5      	RCALL _define_char
                 ; 0000 00C6     define_char(char1,1);   // 
000391 e2ee      	LDI  R30,LOW(_char1*2)
000392 e0f0      	LDI  R31,HIGH(_char1*2)
000393 d809      	RCALL SUBOPT_0x3
000394 e0a1      	LDI  R26,LOW(1)
000395 def0      	RCALL _define_char
                 ; 0000 00C7     while(!set){
                 _0x2D:
000396 9b82      	SBIS 0x10,2
000397 c238      	RJMP _0x2F
                 ; 0000 00C8     //choice 0=time/ 1=date / 2=reminder / 3=temp&hum
                 ; 0000 00C9     //page 1&2
                 ; 0000 00CA         lcd_clear();
000398 d5ac      	RCALL _lcd_clear
                 ; 0000 00CB         delay_ms(30);
000399 e1ae      	LDI  R26,LOW(30)
00039a d84e      	RCALL SUBOPT_0x19
                 ; 0000 00CC         lcd_gotoxy(0,0);
00039b d84f      	RCALL SUBOPT_0x1A
                 ; 0000 00CD             if(page==0){
00039c 3000      	CPI  R16,0
00039d f431      	BRNE _0x30
                 ; 0000 00CE                 lcd_puts("1.Time <            ");
                +
00039e e8a8     +LDI R26 , LOW ( _0x31 + ( 0 ) )
00039f e0b1     +LDI R27 , HIGH ( _0x31 + ( 0 ) )
                 	__POINTW2MN _0x31,0
0003a0 d5d0      	RCALL _lcd_puts
                 ; 0000 00CF                 lcd_puts("2.Date             ");
                +
0003a1 e9ad     +LDI R26 , LOW ( _0x31 + ( 21 ) )
0003a2 e0b1     +LDI R27 , HIGH ( _0x31 + ( 21 ) )
                 	__POINTW2MN _0x31,21
0003a3 d84b      	RCALL SUBOPT_0x1B
                 ; 0000 00D0                 lcd_putchar(1);
                 ; 0000 00D1                 }
                 ; 0000 00D2             if(page==1){
                 _0x30:
0003a4 3001      	CPI  R16,1
0003a5 f431      	BRNE _0x32
                 ; 0000 00D3                 lcd_puts("1.Time             ");
                +
0003a6 eba1     +LDI R26 , LOW ( _0x31 + ( 41 ) )
0003a7 e0b1     +LDI R27 , HIGH ( _0x31 + ( 41 ) )
                 	__POINTW2MN _0x31,41
0003a8 d848      	RCALL SUBOPT_0x1C
                 ; 0000 00D4                 lcd_putchar(0);
                 ; 0000 00D5                 lcd_puts("2.Date <           ");
                +
0003a9 eca5     +LDI R26 , LOW ( _0x31 + ( 61 ) )
0003aa e0b1     +LDI R27 , HIGH ( _0x31 + ( 61 ) )
                 	__POINTW2MN _0x31,61
0003ab d843      	RCALL SUBOPT_0x1B
                 ; 0000 00D6                 lcd_putchar(1);
                 ; 0000 00D7                 }
                 ; 0000 00D8             if(page==2){
                 _0x32:
0003ac 3002      	CPI  R16,2
0003ad f419      	BRNE _0x33
                 ; 0000 00D9                 lcd_puts("3.Temp&Hum <       ");
                +
0003ae eda9     +LDI R26 , LOW ( _0x31 + ( 81 ) )
0003af e0b1     +LDI R27 , HIGH ( _0x31 + ( 81 ) )
                 	__POINTW2MN _0x31,81
0003b0 d840      	RCALL SUBOPT_0x1C
                 ; 0000 00DA                 lcd_putchar(0);
                 ; 0000 00DB                 }
                 ; 0000 00DC 
                 ; 0000 00DD         while(!up && !down && !ok && !set);
                 _0x33:
                 _0x34:
0003b1 d841      	RCALL SUBOPT_0x1D
0003b2 f431      	BRNE _0x37
0003b3 d844      	RCALL SUBOPT_0x1E
0003b4 f421      	BRNE _0x37
0003b5 d847      	RCALL SUBOPT_0x1F
0003b6 f411      	BRNE _0x37
0003b7 d84a      	RCALL SUBOPT_0x20
0003b8 f009      	BREQ _0x38
                 _0x37:
0003b9 c001      	RJMP _0x36
                 _0x38:
0003ba cff6      	RJMP _0x34
                 _0x36:
                 ; 0000 00DE         if(down){
0003bb 999b      	SBIC 0x13,3
0003bc c007      	RJMP _0x39
                 ; 0000 00DF             while(down);
                 _0x3A:
0003bd 9b9b      	SBIS 0x13,3
0003be cffe      	RJMP _0x3A
                 ; 0000 00E0             page+=1;
0003bf 5f0f      	SUBI R16,-LOW(1)
                 ; 0000 00E1             if(page==3){
0003c0 3003      	CPI  R16,3
0003c1 f411      	BRNE _0x3D
                 ; 0000 00E2                 styledown();
0003c2 df34      	RCALL _styledown
                 ; 0000 00E3                 page=2;
0003c3 e002      	LDI  R16,LOW(2)
                 ; 0000 00E4             }
                 ; 0000 00E5         }
                 _0x3D:
                 ; 0000 00E6 
                 ; 0000 00E7         if(up){
                 _0x39:
0003c4 999a      	SBIC 0x13,2
0003c5 c007      	RJMP _0x3E
                 ; 0000 00E8             while(up);
                 _0x3F:
0003c6 9b9a      	SBIS 0x13,2
0003c7 cffe      	RJMP _0x3F
                 ; 0000 00E9             page-=1;
0003c8 5001      	SUBI R16,LOW(1)
                 ; 0000 00EA             if(page == 255){
0003c9 3f0f      	CPI  R16,255
0003ca f411      	BRNE _0x42
                 ; 0000 00EB                 styleup();
0003cb df1f      	RCALL _styleup
                 ; 0000 00EC                 page=0;
0003cc e000      	LDI  R16,LOW(0)
                 ; 0000 00ED             }
                 ; 0000 00EE         }
                 _0x42:
                 ; 0000 00EF 
                 ; 0000 00F0         if(ok){
                 _0x3E:
0003cd 999c      	SBIC 0x13,4
0003ce c200      	RJMP _0x43
                 ; 0000 00F1             while(ok);
                 _0x44:
0003cf 9b9c      	SBIS 0x13,4
0003d0 cffe      	RJMP _0x44
                 ; 0000 00F2             if(page==0){ //   
0003d1 3000      	CPI  R16,0
0003d2 f009      	BREQ PC+2
0003d3 c115      	RJMP _0x47
                 ; 0000 00F3                 delay_ms(50);
0003d4 d7e6      	RCALL SUBOPT_0xB
                 ; 0000 00F4                 choice=0;
0003d5 d831      	RCALL SUBOPT_0x21
                 ; 0000 00F5                 while(!set){
                 _0x48:
0003d6 9b82      	SBIS 0x10,2
0003d7 c10f      	RJMP _0x4A
                 ; 0000 00F6                     lcd_gotoxy(0,0);
0003d8 d812      	RCALL SUBOPT_0x1A
                 ; 0000 00F7                     if(choice==0){
0003d9 fcf0      	SBRC R15,0
0003da c007      	RJMP _0x4B
                 ; 0000 00F8                         lcd_puts("1.Set Time  <       ");
                +
0003db eead     +LDI R26 , LOW ( _0x31 + ( 101 ) )
0003dc e0b1     +LDI R27 , HIGH ( _0x31 + ( 101 ) )
                 	__POINTW2MN _0x31,101
0003dd d593      	RCALL _lcd_puts
                 ; 0000 00F9                         lcd_puts("2.Time Type        ");
                +
0003de e0a2     +LDI R26 , LOW ( _0x31 + ( 122 ) )
0003df e0b2     +LDI R27 , HIGH ( _0x31 + ( 122 ) )
                 	__POINTW2MN _0x31,122
0003e0 d80e      	RCALL SUBOPT_0x1B
                 ; 0000 00FA                         lcd_putchar(1);
                 ; 0000 00FB                     }else{
0003e1 c006      	RJMP _0x4C
                 _0x4B:
                 ; 0000 00FC                         lcd_puts("1.Set Time         ");
                +
0003e2 e1a6     +LDI R26 , LOW ( _0x31 + ( 142 ) )
0003e3 e0b2     +LDI R27 , HIGH ( _0x31 + ( 142 ) )
                 	__POINTW2MN _0x31,142
0003e4 d80c      	RCALL SUBOPT_0x1C
                 ; 0000 00FD                         lcd_putchar(0);
                 ; 0000 00FE                         lcd_puts("2.Time Type <       ");
                +
0003e5 e2aa     +LDI R26 , LOW ( _0x31 + ( 162 ) )
0003e6 e0b2     +LDI R27 , HIGH ( _0x31 + ( 162 ) )
                 	__POINTW2MN _0x31,162
0003e7 d589      	RCALL _lcd_puts
                 ; 0000 00FF                     }
                 _0x4C:
                 ; 0000 0100                     while(!ok && !up && !down && !set);
                 _0x4D:
0003e8 d814      	RCALL SUBOPT_0x1F
0003e9 f431      	BRNE _0x50
0003ea d808      	RCALL SUBOPT_0x1D
0003eb f421      	BRNE _0x50
0003ec d80b      	RCALL SUBOPT_0x1E
0003ed f411      	BRNE _0x50
0003ee d813      	RCALL SUBOPT_0x20
0003ef f009      	BREQ _0x51
                 _0x50:
0003f0 c001      	RJMP _0x4F
                 _0x51:
0003f1 cff6      	RJMP _0x4D
                 _0x4F:
                 ; 0000 0101                     if(up){
0003f2 999a      	SBIC 0x13,2
0003f3 c007      	RJMP _0x52
                 ; 0000 0102                         while(up);
                 _0x53:
0003f4 9b9a      	SBIS 0x13,2
0003f5 cffe      	RJMP _0x53
                 ; 0000 0103                         if(choice==0)
0003f6 fcf0      	SBRC R15,0
0003f7 c002      	RJMP _0x56
                 ; 0000 0104                             styleup();
0003f8 def2      	RCALL _styleup
                 ; 0000 0105                         else
0003f9 c001      	RJMP _0x57
                 _0x56:
                 ; 0000 0106                            choice=0;
0003fa d80c      	RCALL SUBOPT_0x21
                 ; 0000 0107                     }
                 _0x57:
                 ; 0000 0108 
                 ; 0000 0109                     if(down){
                 _0x52:
0003fb 999b      	SBIC 0x13,3
0003fc c008      	RJMP _0x58
                 ; 0000 010A                         while(down);
                 _0x59:
0003fd 9b9b      	SBIS 0x13,3
0003fe cffe      	RJMP _0x59
                 ; 0000 010B                         if(choice==1)
0003ff fef0      	SBRS R15,0
000400 c002      	RJMP _0x5C
                 ; 0000 010C                             styledown();
000401 def5      	RCALL _styledown
                 ; 0000 010D                         else
000402 c002      	RJMP _0x5D
                 _0x5C:
                 ; 0000 010E                             choice=1;
000403 9468      	SET
000404 f8f0      	BLD  R15,0
                 ; 0000 010F                     }
                 _0x5D:
                 ; 0000 0110                     if(ok){
                 _0x58:
000405 999c      	SBIC 0x13,4
000406 c0df      	RJMP _0x5E
                 ; 0000 0111                         while(ok);
                 _0x5F:
000407 9b9c      	SBIS 0x13,4
000408 cffe      	RJMP _0x5F
                 ; 0000 0112                         if(choice==0){// 
000409 fcf0      	SBRC R15,0
00040a c0ac      	RJMP _0x62
                 ; 0000 0113                             rtc_get_time(&hour,&miin,&sec);
00040b d7fe      	RCALL SUBOPT_0x22
                 ; 0000 0114                             i=0;
00040c e010      	LDI  R17,LOW(0)
                 ; 0000 0115                             lcd_clear();
00040d d537      	RCALL _lcd_clear
                 ; 0000 0116                             lcd_gotoxy(0,0);
00040e d7dc      	RCALL SUBOPT_0x1A
                 ; 0000 0117                             lcd_puts("     Set Time :    ");
                +
00040f e3af     +LDI R26 , LOW ( _0x31 + ( 183 ) )
000410 e0b2     +LDI R27 , HIGH ( _0x31 + ( 183 ) )
                 	__POINTW2MN _0x31,183
000411 d55f      	RCALL _lcd_puts
                 ; 0000 0118                             while(!ok){
                 _0x63:
000412 9b9c      	SBIS 0x13,4
000413 c09c      	RJMP _0x65
                 ; 0000 0119                                 timesetshow(i);
000414 d7fe      	RCALL SUBOPT_0x23
                 ; 0000 011A                                 while(!up && !down && !set && !ok);
                 _0x66:
000415 d7dd      	RCALL SUBOPT_0x1D
000416 f431      	BRNE _0x69
000417 d7e0      	RCALL SUBOPT_0x1E
000418 f421      	BRNE _0x69
000419 d7e8      	RCALL SUBOPT_0x20
00041a f411      	BRNE _0x69
00041b d7e1      	RCALL SUBOPT_0x1F
00041c f009      	BREQ _0x6A
                 _0x69:
00041d c001      	RJMP _0x68
                 _0x6A:
00041e cff6      	RJMP _0x66
                 _0x68:
                 ; 0000 011B                                 if(up){
00041f 999a      	SBIC 0x13,2
000420 c03f      	RJMP _0x6B
                 ; 0000 011C                                     switch (i) {
000421 d7f3      	RCALL SUBOPT_0x24
                 ; 0000 011D                                         case 0:   //               
000422 f491      	BRNE _0x6F
                 ; 0000 011E                                           hour++;
000423 9483      	INC  R8
                 ; 0000 011F                                           if(hour==24)
000424 e1e8      	LDI  R30,LOW(24)
000425 15e8      	CP   R30,R8
000426 f409      	BRNE _0x70
                 ; 0000 0120                                              hour=0;
000427 2488      	CLR  R8
                 ; 0000 0121                                           timesetshow(i);
                 _0x70:
000428 d7ea      	RCALL SUBOPT_0x23
                 ; 0000 0122                                           delay_ms(700);
000429 d7ef      	RCALL SUBOPT_0x25
                 ; 0000 0123                                           while(up){
                 _0x71:
00042a 999a      	SBIC 0x13,2
00042b c008      	RJMP _0x73
                 ; 0000 0124                                             hour++;
00042c 9483      	INC  R8
                 ; 0000 0125                                             if(hour==24)
00042d e1e8      	LDI  R30,LOW(24)
00042e 15e8      	CP   R30,R8
00042f f409      	BRNE _0x74
                 ; 0000 0126                                                hour=0;
000430 2488      	CLR  R8
                 ; 0000 0127                                             timesetshow(i);
                 _0x74:
000431 d7e1      	RCALL SUBOPT_0x23
                 ; 0000 0128                                             delay_ms(130);
000432 d7e9      	RCALL SUBOPT_0x26
                 ; 0000 0129                                           }
000433 cff6      	RJMP _0x71
                 _0x73:
                 ; 0000 012A                                           break;
000434 c02b      	RJMP _0x6E
                 ; 0000 012B 
                 ; 0000 012C                                         case 1:
                 _0x6F:
000435 30e1      	CPI  R30,LOW(0x1)
000436 e0a0      	LDI  R26,HIGH(0x1)
000437 07fa      	CPC  R31,R26
000438 f491      	BRNE _0x75
                 ; 0000 012D                                           miin++;
000439 94d3      	INC  R13
                 ; 0000 012E                                           if(miin==60)
00043a e3ec      	LDI  R30,LOW(60)
00043b 15ed      	CP   R30,R13
00043c f409      	BRNE _0x76
                 ; 0000 012F                                             miin=0;
00043d 24dd      	CLR  R13
                 ; 0000 0130                                           timesetshow(i);
                 _0x76:
00043e d7d4      	RCALL SUBOPT_0x23
                 ; 0000 0131                                           delay_ms(700);
00043f d7d9      	RCALL SUBOPT_0x25
                 ; 0000 0132                                           while(up){
                 _0x77:
000440 999a      	SBIC 0x13,2
000441 c008      	RJMP _0x79
                 ; 0000 0133                                             miin++;
000442 94d3      	INC  R13
                 ; 0000 0134                                             if(miin==60)
000443 e3ec      	LDI  R30,LOW(60)
000444 15ed      	CP   R30,R13
000445 f409      	BRNE _0x7A
                 ; 0000 0135                                                 miin=0;
000446 24dd      	CLR  R13
                 ; 0000 0136                                             timesetshow(i);
                 _0x7A:
000447 d7cb      	RCALL SUBOPT_0x23
                 ; 0000 0137                                             delay_ms(130);
000448 d7d3      	RCALL SUBOPT_0x26
                 ; 0000 0138                                           }
000449 cff6      	RJMP _0x77
                 _0x79:
                 ; 0000 0139                                           break;
00044a c015      	RJMP _0x6E
                 ; 0000 013A                                         case 2:
                 _0x75:
00044b 30e2      	CPI  R30,LOW(0x2)
00044c e0a0      	LDI  R26,HIGH(0x2)
00044d 07fa      	CPC  R31,R26
00044e f489      	BRNE _0x6E
                 ; 0000 013B                                           sec++;
00044f 94c3      	INC  R12
                 ; 0000 013C                                           if(sec==60)
000450 e3ec      	LDI  R30,LOW(60)
000451 15ec      	CP   R30,R12
000452 f409      	BRNE _0x7C
                 ; 0000 013D                                             sec=0;
000453 24cc      	CLR  R12
                 ; 0000 013E                                           timesetshow(i);
                 _0x7C:
000454 d7be      	RCALL SUBOPT_0x23
                 ; 0000 013F                                           delay_ms(700);
000455 d7c3      	RCALL SUBOPT_0x25
                 ; 0000 0140                                           while(up){
                 _0x7D:
000456 999a      	SBIC 0x13,2
000457 c008      	RJMP _0x7F
                 ; 0000 0141                                             sec++;
000458 94c3      	INC  R12
                 ; 0000 0142                                             if(sec==60)
000459 e3ec      	LDI  R30,LOW(60)
00045a 15ec      	CP   R30,R12
00045b f409      	BRNE _0x80
                 ; 0000 0143                                                 sec=0;
00045c 24cc      	CLR  R12
                 ; 0000 0144                                             timesetshow(i);
                 _0x80:
00045d d7b5      	RCALL SUBOPT_0x23
                 ; 0000 0145                                             delay_ms(130);
00045e d7bd      	RCALL SUBOPT_0x26
                 ; 0000 0146                                           }
00045f cff6      	RJMP _0x7D
                 _0x7F:
                 ; 0000 0147                                           break;
                 ; 0000 0148                                     };
                 _0x6E:
                 ; 0000 0149 
                 ; 0000 014A                                 }
                 ; 0000 014B 
                 ; 0000 014C                                 if(down){
                 _0x6B:
000460 999b      	SBIC 0x13,3
000461 c045      	RJMP _0x81
                 ; 0000 014D 
                 ; 0000 014E                                     switch (i) {
000462 d7b2      	RCALL SUBOPT_0x24
                 ; 0000 014F                                         case 0:
000463 f4a1      	BRNE _0x85
                 ; 0000 0150                                             hour--;
000464 948a      	DEC  R8
                 ; 0000 0151                                             if(hour==255)
000465 efef      	LDI  R30,LOW(255)
000466 15e8      	CP   R30,R8
000467 f411      	BRNE _0x86
                 ; 0000 0152                                                 hour=23;
000468 e1e7      	LDI  R30,LOW(23)
000469 2e8e      	MOV  R8,R30
                 ; 0000 0153                                             timesetshow(i);
                 _0x86:
00046a d7a8      	RCALL SUBOPT_0x23
                 ; 0000 0154                                             delay_ms(700);
00046b d7ad      	RCALL SUBOPT_0x25
                 ; 0000 0155                                             while(down){
                 _0x87:
00046c 999b      	SBIC 0x13,3
00046d c009      	RJMP _0x89
                 ; 0000 0156                                                 hour--;
00046e 948a      	DEC  R8
                 ; 0000 0157                                                 if(hour==255)
00046f efef      	LDI  R30,LOW(255)
000470 15e8      	CP   R30,R8
000471 f411      	BRNE _0x8A
                 ; 0000 0158                                                     hour=23;
000472 e1e7      	LDI  R30,LOW(23)
000473 2e8e      	MOV  R8,R30
                 ; 0000 0159                                                 timesetshow(i);
                 _0x8A:
000474 d79e      	RCALL SUBOPT_0x23
                 ; 0000 015A                                                 delay_ms(130);
000475 d7a6      	RCALL SUBOPT_0x26
                 ; 0000 015B                                             }
000476 cff5      	RJMP _0x87
                 _0x89:
                 ; 0000 015C                                             break;
000477 c02f      	RJMP _0x84
                 ; 0000 015D                                         case 1:
                 _0x85:
000478 30e1      	CPI  R30,LOW(0x1)
000479 e0a0      	LDI  R26,HIGH(0x1)
00047a 07fa      	CPC  R31,R26
00047b f4a1      	BRNE _0x8B
                 ; 0000 015E                                             miin--;
00047c 94da      	DEC  R13
                 ; 0000 015F                                             if(miin==255)
00047d efef      	LDI  R30,LOW(255)
00047e 15ed      	CP   R30,R13
00047f f411      	BRNE _0x8C
                 ; 0000 0160                                                 miin=59;
000480 e3eb      	LDI  R30,LOW(59)
000481 2ede      	MOV  R13,R30
                 ; 0000 0161                                             timesetshow(i);
                 _0x8C:
000482 d790      	RCALL SUBOPT_0x23
                 ; 0000 0162                                             delay_ms(700);
000483 d795      	RCALL SUBOPT_0x25
                 ; 0000 0163                                             while(down){
                 _0x8D:
000484 999b      	SBIC 0x13,3
000485 c009      	RJMP _0x8F
                 ; 0000 0164                                                 miin--;
000486 94da      	DEC  R13
                 ; 0000 0165                                                 if(miin==255)
000487 efef      	LDI  R30,LOW(255)
000488 15ed      	CP   R30,R13
000489 f411      	BRNE _0x90
                 ; 0000 0166                                                     miin=59;
00048a e3eb      	LDI  R30,LOW(59)
00048b 2ede      	MOV  R13,R30
                 ; 0000 0167                                                 timesetshow(i);
                 _0x90:
00048c d786      	RCALL SUBOPT_0x23
                 ; 0000 0168                                                 delay_ms(130);
00048d d78e      	RCALL SUBOPT_0x26
                 ; 0000 0169                                             }
00048e cff5      	RJMP _0x8D
                 _0x8F:
                 ; 0000 016A                                             break;
00048f c017      	RJMP _0x84
                 ; 0000 016B                                         case 2:
                 _0x8B:
000490 30e2      	CPI  R30,LOW(0x2)
000491 e0a0      	LDI  R26,HIGH(0x2)
000492 07fa      	CPC  R31,R26
000493 f499      	BRNE _0x84
                 ; 0000 016C                                             sec--;
000494 94ca      	DEC  R12
                 ; 0000 016D                                             if(sec==255)
000495 efef      	LDI  R30,LOW(255)
000496 15ec      	CP   R30,R12
000497 f411      	BRNE _0x92
                 ; 0000 016E                                                 sec=59;
000498 e3eb      	LDI  R30,LOW(59)
000499 2ece      	MOV  R12,R30
                 ; 0000 016F                                             timesetshow(i);
                 _0x92:
00049a d778      	RCALL SUBOPT_0x23
                 ; 0000 0170                                             delay_ms(700);
00049b d77d      	RCALL SUBOPT_0x25
                 ; 0000 0171                                             while(down){
                 _0x93:
00049c 999b      	SBIC 0x13,3
00049d c009      	RJMP _0x95
                 ; 0000 0172                                                 sec--;
00049e 94ca      	DEC  R12
                 ; 0000 0173                                                 if(sec==255)
00049f efef      	LDI  R30,LOW(255)
0004a0 15ec      	CP   R30,R12
0004a1 f411      	BRNE _0x96
                 ; 0000 0174                                                     sec=59;
0004a2 e3eb      	LDI  R30,LOW(59)
0004a3 2ece      	MOV  R12,R30
                 ; 0000 0175                                                 timesetshow(i);
                 _0x96:
0004a4 d76e      	RCALL SUBOPT_0x23
                 ; 0000 0176                                                 delay_ms(130);
0004a5 d776      	RCALL SUBOPT_0x26
                 ; 0000 0177                                             }
0004a6 cff5      	RJMP _0x93
                 _0x95:
                 ; 0000 0178                                             break;
                 ; 0000 0179                                     };
                 _0x84:
                 ; 0000 017A 
                 ; 0000 017B                                 }
                 ; 0000 017C 
                 ; 0000 017D                                 if(set){
                 _0x81:
0004a7 9982      	SBIC 0x10,2
0004a8 c006      	RJMP _0x97
                 ; 0000 017E                                     while(set);
                 _0x98:
0004a9 9b82      	SBIS 0x10,2
0004aa cffe      	RJMP _0x98
                 ; 0000 017F                                     i++;
0004ab 5f1f      	SUBI R17,-1
                 ; 0000 0180                                     if(i==3)
0004ac 3013      	CPI  R17,3
0004ad f409      	BRNE _0x9B
                 ; 0000 0181                                         i=0;
0004ae e010      	LDI  R17,LOW(0)
                 ; 0000 0182                                 }
                 _0x9B:
                 ; 0000 0183                             }
                 _0x97:
0004af cf62      	RJMP _0x63
                 _0x65:
                 ; 0000 0184                             while(ok);
                 _0x9C:
0004b0 9b9c      	SBIS 0x13,4
0004b1 cffe      	RJMP _0x9C
                 ; 0000 0185                             rtc_set_time(hour,miin,sec);
0004b2 928a      	ST   -Y,R8
0004b3 92da      	ST   -Y,R13
0004b4 2dac      	MOV  R26,R12
0004b5 d422      	RCALL _rtc_set_time
                 ; 0000 0186                         }else{//   24/12
0004b6 c02f      	RJMP _0x9F
                 _0x62:
                 ; 0000 0187                             choice2=0;
0004b7 94e8      	CLT
0004b8 f8f1      	BLD  R15,1
                 ; 0000 0188                             while(!ok){
                 _0xA0:
0004b9 9b9c      	SBIS 0x13,4
0004ba c029      	RJMP _0xA2
                 ; 0000 0189                                 lcd_clear();
0004bb d489      	RCALL _lcd_clear
                 ; 0000 018A                                 lcd_gotoxy(0,0);
0004bc d72e      	RCALL SUBOPT_0x1A
                 ; 0000 018B                                 lcd_puts("clock mode:24h/12h?");
                +
0004bd e5a3     +LDI R26 , LOW ( _0x31 + ( 203 ) )
0004be e0b2     +LDI R27 , HIGH ( _0x31 + ( 203 ) )
                 	__POINTW2MN _0x31,203
0004bf d75e      	RCALL SUBOPT_0x27
                 ; 0000 018C                                 lcd_gotoxy(0,1);
                 ; 0000 018D                                 if(rtc_read(0x08) & 0x01)
0004c0 70e1      	ANDI R30,LOW(0x1)
0004c1 f019      	BREQ _0xA3
                 ; 0000 018E                                     lcd_puts("    <24h>   12h     ");
                +
0004c2 e6a7     +LDI R26 , LOW ( _0x31 + ( 223 ) )
0004c3 e0b2     +LDI R27 , HIGH ( _0x31 + ( 223 ) )
                 	__POINTW2MN _0x31,223
0004c4 c002      	RJMP _0x180
                 ; 0000 018F                                 else
                 _0xA3:
                 ; 0000 0190                                     lcd_puts("     24h   <12h>    ");
                +
0004c5 e7ac     +LDI R26 , LOW ( _0x31 + ( 244 ) )
0004c6 e0b2     +LDI R27 , HIGH ( _0x31 + ( 244 ) )
                 	__POINTW2MN _0x31,244
                 _0x180:
0004c7 d4a9      	RCALL _lcd_puts
                 ; 0000 0191                                 while(!ok & !set);
                 _0xA5:
0004c8 e0a0      	LDI  R26,0
0004c9 9b9c      	SBIS 0x13,4
0004ca e0a1      	LDI  R26,1
0004cb e0e0      	LDI  R30,LOW(0)
0004cc dabc      	RCALL __EQB12
0004cd 2e0e      	MOV  R0,R30
0004ce e0a0      	LDI  R26,0
0004cf 9b82      	SBIS 0x10,2
0004d0 e0a1      	LDI  R26,1
0004d1 e0e0      	LDI  R30,LOW(0)
0004d2 dab6      	RCALL __EQB12
0004d3 21e0      	AND  R30,R0
0004d4 f799      	BRNE _0xA5
                 ; 0000 0192                                 if(set){
0004d5 9982      	SBIC 0x10,2
0004d6 c00c      	RJMP _0xA8
                 ; 0000 0193                                     while(set);
                 _0xA9:
0004d7 9b82      	SBIS 0x10,2
0004d8 cffe      	RJMP _0xA9
                 ; 0000 0194                                     if(rtc_read(0x08) & 0x01)
0004d9 d6ba      	RCALL SUBOPT_0x0
0004da 70e1      	ANDI R30,LOW(0x1)
0004db f019      	BREQ _0xAC
                 ; 0000 0195                                         rtc_write(0x08,rtc_read(0x08) & 0xFE);
0004dc d747      	RCALL SUBOPT_0x28
0004dd 7fee      	ANDI R30,0xFE
0004de c002      	RJMP _0x181
                 ; 0000 0196                                     else
                 _0xAC:
                 ; 0000 0197                                         rtc_write(0x08,rtc_read(0x08) | 0x01);
0004df d744      	RCALL SUBOPT_0x28
0004e0 60e1      	ORI  R30,1
                 _0x181:
0004e1 2fae      	MOV  R26,R30
0004e2 d3c9      	RCALL _rtc_write
                 ; 0000 0198                                 }
                 ; 0000 0199                             }
                 _0xA8:
0004e3 cfd5      	RJMP _0xA0
                 _0xA2:
                 ; 0000 019A                             while(ok);
                 _0xAE:
0004e4 9b9c      	SBIS 0x13,4
0004e5 cffe      	RJMP _0xAE
                 ; 0000 019B                         }
                 _0x9F:
                 ; 0000 019C                     }
                 ; 0000 019D                 }
                 _0x5E:
0004e6 ceef      	RJMP _0x48
                 _0x4A:
                 ; 0000 019E                 while(set);
                 _0xB1:
0004e7 9b82      	SBIS 0x10,2
0004e8 cffe      	RJMP _0xB1
                 ; 0000 019F             }
                 ; 0000 01A0             if(page==1){//set date & type
                 _0x47:
0004e9 3001      	CPI  R16,1
0004ea f009      	BREQ PC+2
0004eb c0e3      	RJMP _0xB4
                 ; 0000 01A1                 lcd_clear();
0004ec d458      	RCALL _lcd_clear
                 ; 0000 01A2                 choice=0;
0004ed d719      	RCALL SUBOPT_0x21
                 ; 0000 01A3                 delay_ms(50);
0004ee d6cc      	RCALL SUBOPT_0xB
                 ; 0000 01A4                 while (!set){
                 _0xB5:
0004ef 9b82      	SBIS 0x10,2
0004f0 c0dc      	RJMP _0xB7
                 ; 0000 01A5                     lcd_gotoxy(0,0);
0004f1 d6f9      	RCALL SUBOPT_0x1A
                 ; 0000 01A6                     if(choice==0){
0004f2 fcf0      	SBRC R15,0
0004f3 c007      	RJMP _0xB8
                 ; 0000 01A7                         lcd_puts("1.Date Type <       ");
                +
0004f4 e9a1     +LDI R26 , LOW ( _0x31 + ( 265 ) )
0004f5 e0b2     +LDI R27 , HIGH ( _0x31 + ( 265 ) )
                 	__POINTW2MN _0x31,265
0004f6 d47a      	RCALL _lcd_puts
                 ; 0000 01A8                         lcd_puts("2.Set Date         ");
                +
0004f7 eaa6     +LDI R26 , LOW ( _0x31 + ( 286 ) )
0004f8 e0b2     +LDI R27 , HIGH ( _0x31 + ( 286 ) )
                 	__POINTW2MN _0x31,286
0004f9 d6f5      	RCALL SUBOPT_0x1B
                 ; 0000 01A9                         lcd_putchar(1);
                 ; 0000 01AA                     }else{
0004fa c006      	RJMP _0xB9
                 _0xB8:
                 ; 0000 01AB                         lcd_puts("1.Date Type        ");
                +
0004fb ebaa     +LDI R26 , LOW ( _0x31 + ( 306 ) )
0004fc e0b2     +LDI R27 , HIGH ( _0x31 + ( 306 ) )
                 	__POINTW2MN _0x31,306
0004fd d6f3      	RCALL SUBOPT_0x1C
                 ; 0000 01AC                         lcd_putchar(0);
                 ; 0000 01AD                         lcd_puts("2.Set Date  <       ");
                +
0004fe ecae     +LDI R26 , LOW ( _0x31 + ( 326 ) )
0004ff e0b2     +LDI R27 , HIGH ( _0x31 + ( 326 ) )
                 	__POINTW2MN _0x31,326
000500 d470      	RCALL _lcd_puts
                 ; 0000 01AE                     }
                 _0xB9:
                 ; 0000 01AF                     while(!ok && !up && !down && !set);
                 _0xBA:
000501 d6fb      	RCALL SUBOPT_0x1F
000502 f431      	BRNE _0xBD
000503 d6ef      	RCALL SUBOPT_0x1D
000504 f421      	BRNE _0xBD
000505 d6f2      	RCALL SUBOPT_0x1E
000506 f411      	BRNE _0xBD
000507 d6fa      	RCALL SUBOPT_0x20
000508 f009      	BREQ _0xBE
                 _0xBD:
000509 c001      	RJMP _0xBC
                 _0xBE:
00050a cff6      	RJMP _0xBA
                 _0xBC:
                 ; 0000 01B0                     if(up){
00050b 999a      	SBIC 0x13,2
00050c c007      	RJMP _0xBF
                 ; 0000 01B1                         while(up);
                 _0xC0:
00050d 9b9a      	SBIS 0x13,2
00050e cffe      	RJMP _0xC0
                 ; 0000 01B2                         if(choice==0)
00050f fcf0      	SBRC R15,0
000510 c002      	RJMP _0xC3
                 ; 0000 01B3                             styleup();
000511 ddd9      	RCALL _styleup
                 ; 0000 01B4                         else
000512 c001      	RJMP _0xC4
                 _0xC3:
                 ; 0000 01B5                            choice=0;
000513 d6f3      	RCALL SUBOPT_0x21
                 ; 0000 01B6                     }
                 _0xC4:
                 ; 0000 01B7 
                 ; 0000 01B8                     if(down){
                 _0xBF:
000514 999b      	SBIC 0x13,3
000515 c008      	RJMP _0xC5
                 ; 0000 01B9                         while(down);
                 _0xC6:
000516 9b9b      	SBIS 0x13,3
000517 cffe      	RJMP _0xC6
                 ; 0000 01BA                         if(choice==1)
000518 fef0      	SBRS R15,0
000519 c002      	RJMP _0xC9
                 ; 0000 01BB                             styledown();
00051a dddc      	RCALL _styledown
                 ; 0000 01BC                         else
00051b c002      	RJMP _0xCA
                 _0xC9:
                 ; 0000 01BD                             choice=1;
00051c 9468      	SET
00051d f8f0      	BLD  R15,0
                 ; 0000 01BE                     }
                 _0xCA:
                 ; 0000 01BF                     if(ok){
                 _0xC5:
00051e 999c      	SBIC 0x13,4
00051f c0ac      	RJMP _0xCB
                 ; 0000 01C0                         while(ok);
                 _0xCC:
000520 9b9c      	SBIS 0x13,4
000521 cffe      	RJMP _0xCC
                 ; 0000 01C1                         if(choice==0){  // date type
000522 fcf0      	SBRC R15,0
000523 c028      	RJMP _0xCF
                 ; 0000 01C2                             while(!ok){
                 _0xD0:
000524 9b9c      	SBIS 0x13,4
000525 c023      	RJMP _0xD2
                 ; 0000 01C3                                 lcd_clear();
000526 d41e      	RCALL _lcd_clear
                 ; 0000 01C4                                 lcd_gotoxy(1,0);
000527 e0e1      	LDI  R30,LOW(1)
000528 d6fe      	RCALL SUBOPT_0x29
                 ; 0000 01C5                                 lcd_puts("date type?");
                +
000529 eea3     +LDI R26 , LOW ( _0x31 + ( 347 ) )
00052a e0b2     +LDI R27 , HIGH ( _0x31 + ( 347 ) )
                 	__POINTW2MN _0x31,347
00052b d6f2      	RCALL SUBOPT_0x27
                 ; 0000 01C6                                 lcd_gotoxy(0,1);
                 ; 0000 01C7                                 if(rtc_read(0x08) & 0x02)
00052c 70e2      	ANDI R30,LOW(0x2)
00052d f019      	BREQ _0xD3
                 ; 0000 01C8                                     lcd_puts(" <shamsi>    miladi ");
                +
00052e eeae     +LDI R26 , LOW ( _0x31 + ( 358 ) )
00052f e0b2     +LDI R27 , HIGH ( _0x31 + ( 358 ) )
                 	__POINTW2MN _0x31,358
000530 c002      	RJMP _0x182
                 ; 0000 01C9                                 else
                 _0xD3:
                 ; 0000 01CA                                     lcd_puts("  shamsi    <miladi>");
                +
000531 e0a3     +LDI R26 , LOW ( _0x31 + ( 379 ) )
000532 e0b3     +LDI R27 , HIGH ( _0x31 + ( 379 ) )
                 	__POINTW2MN _0x31,379
                 _0x182:
000533 d43d      	RCALL _lcd_puts
                 ; 0000 01CB                                 while(!ok && !set);
                 _0xD5:
000534 d6c8      	RCALL SUBOPT_0x1F
000535 f411      	BRNE _0xD8
000536 d6cb      	RCALL SUBOPT_0x20
000537 f009      	BREQ _0xD9
                 _0xD8:
000538 c001      	RJMP _0xD7
                 _0xD9:
000539 cffa      	RJMP _0xD5
                 _0xD7:
                 ; 0000 01CC                                 if(set){
00053a 9982      	SBIC 0x10,2
00053b c00c      	RJMP _0xDA
                 ; 0000 01CD                                     while(set);
                 _0xDB:
00053c 9b82      	SBIS 0x10,2
00053d cffe      	RJMP _0xDB
                 ; 0000 01CE                                     if(rtc_read(0x08) & 0x02)
00053e d655      	RCALL SUBOPT_0x0
00053f 70e2      	ANDI R30,LOW(0x2)
000540 f019      	BREQ _0xDE
                 ; 0000 01CF                                         rtc_write(0x08,rtc_read(0x08) & 0xFD);
000541 d6e2      	RCALL SUBOPT_0x28
000542 7fed      	ANDI R30,0xFD
000543 c002      	RJMP _0x183
                 ; 0000 01D0                                     else
                 _0xDE:
                 ; 0000 01D1                                         rtc_write(0x08,rtc_read(0x08) | 0x02);
000544 d6df      	RCALL SUBOPT_0x28
000545 60e2      	ORI  R30,2
                 _0x183:
000546 2fae      	MOV  R26,R30
000547 d364      	RCALL _rtc_write
                 ; 0000 01D2                                 }
                 ; 0000 01D3                             }
                 _0xDA:
000548 cfdb      	RJMP _0xD0
                 _0xD2:
                 ; 0000 01D4                             while(ok);
                 _0xE0:
000549 9b9c      	SBIS 0x13,4
00054a cffe      	RJMP _0xE0
                 ; 0000 01D5                         }else{      // set date
00054b c080      	RJMP _0xE3
                 _0xCF:
                 ; 0000 01D6 						    rtc_get_date (&week_day,&day,&month,&year);
00054c d6dd      	RCALL SUBOPT_0x2A
                 ; 0000 01D7 							i=0;
00054d e010      	LDI  R17,LOW(0)
                 ; 0000 01D8 							if(rtc_read(0x08) & 0x02){
00054e d645      	RCALL SUBOPT_0x0
00054f 70e2      	ANDI R30,LOW(0x2)
000550 f009      	BREQ _0xE4
                 ; 0000 01D9 										//parsi set date
                 ; 0000 01DA 							}else{
000551 c078      	RJMP _0xE5
                 _0xE4:
                 ; 0000 01DB 							    //english set date
                 ; 0000 01DC                                 lcd_clear();
000552 d3f2      	RCALL _lcd_clear
                 ; 0000 01DD                                 lcd_gotoxy(0,0);
000553 d697      	RCALL SUBOPT_0x1A
                 ; 0000 01DE                                 lcd_puts("     Set Date :     ");
                +
000554 e1a8     +LDI R26 , LOW ( _0x31 + ( 400 ) )
000555 e0b3     +LDI R27 , HIGH ( _0x31 + ( 400 ) )
                 	__POINTW2MN _0x31,400
000556 d41a      	RCALL _lcd_puts
                 ; 0000 01DF 								while(!ok){
                 _0xE6:
000557 9b9c      	SBIS 0x13,4
000558 c06b      	RJMP _0xE8
                 ; 0000 01E0 
                 ; 0000 01E1                                     datesetshow(i);
000559 d6dc      	RCALL SUBOPT_0x2B
                 ; 0000 01E2                                     while(!ok && !set && !up && !down);
                 _0xE9:
00055a d6a2      	RCALL SUBOPT_0x1F
00055b f431      	BRNE _0xEC
00055c d6a5      	RCALL SUBOPT_0x20
00055d f421      	BRNE _0xEC
00055e d694      	RCALL SUBOPT_0x1D
00055f f411      	BRNE _0xEC
000560 d697      	RCALL SUBOPT_0x1E
000561 f009      	BREQ _0xED
                 _0xEC:
000562 c001      	RJMP _0xEB
                 _0xED:
000563 cff6      	RJMP _0xE9
                 _0xEB:
                 ; 0000 01E3                                     if(set){
000564 9982      	SBIC 0x10,2
000565 c006      	RJMP _0xEE
                 ; 0000 01E4                                         while(set);
                 _0xEF:
000566 9b82      	SBIS 0x10,2
000567 cffe      	RJMP _0xEF
                 ; 0000 01E5                                         i++;
000568 5f1f      	SUBI R17,-1
                 ; 0000 01E6                                         if(i==4)
000569 3014      	CPI  R17,4
00056a f409      	BRNE _0xF2
                 ; 0000 01E7                                             i=0;
00056b e010      	LDI  R17,LOW(0)
                 ; 0000 01E8                                     }
                 _0xF2:
                 ; 0000 01E9                                     if(up){
                 _0xEE:
00056c 999a      	SBIC 0x13,2
00056d c055      	RJMP _0xF3
                 ; 0000 01EA                                         if(i==0){
00056e 3010      	CPI  R17,0
00056f f4d1      	BRNE _0xF4
                 ; 0000 01EB                                             year++;
000570 9493      	INC  R9
                 ; 0000 01EC                                             if(year==100)
000571 e6e4      	LDI  R30,LOW(100)
000572 15e9      	CP   R30,R9
000573 f409      	BRNE _0xF5
                 ; 0000 01ED                                                 year=0;
000574 2499      	CLR  R9
                 ; 0000 01EE                                             datesetshow(i);
                 _0xF5:
000575 d6c0      	RCALL SUBOPT_0x2B
                 ; 0000 01EF                                             delay_ms(500);
000576 d6c1      	RCALL SUBOPT_0x2C
                 ; 0000 01F0                                             while(up){
                 _0xF6:
000577 999a      	SBIC 0x13,2
000578 c008      	RJMP _0xF8
                 ; 0000 01F1                                                 year++;
000579 9493      	INC  R9
                 ; 0000 01F2                                                 if(year==100)
00057a e6e4      	LDI  R30,LOW(100)
00057b 15e9      	CP   R30,R9
00057c f409      	BRNE _0xF9
                 ; 0000 01F3                                                     year=0;
00057d 2499      	CLR  R9
                 ; 0000 01F4                                                 datesetshow(i);
                 _0xF9:
00057e d6b7      	RCALL SUBOPT_0x2B
                 ; 0000 01F5                                                 delay_ms(100);
00057f d6bb      	RCALL SUBOPT_0x2D
                 ; 0000 01F6                                             }
000580 cff6      	RJMP _0xF6
                 _0xF8:
                 ; 0000 01F7                                             if(leap(year))
000581 2da9      	MOV  R26,R9
000582 dddb      	RCALL _leap
000583 30e0      	CPI  R30,0
000584 f011      	BREQ _0xFA
                 ; 0000 01F8                                                 miladimonth[1]=29;
000585 e1ed      	LDI  R30,LOW(29)
000586 c001      	RJMP _0x184
                 ; 0000 01F9                                             else
                 _0xFA:
                 ; 0000 01FA                                                 miladimonth[1]=28;
000587 e1ec      	LDI  R30,LOW(28)
                 _0x184:
                +
000588 93e0 0341+STS _miladimonth + ( 1 ) , R30
                 	__PUTB1MN _miladimonth,1
                 ; 0000 01FB                                         }
                 ; 0000 01FC                                         if(i==1){
                 _0xF4:
00058a 3011      	CPI  R17,1
00058b f499      	BRNE _0xFC
                 ; 0000 01FD                                             month++;
00058c 9463      	INC  R6
                 ; 0000 01FE                                             if(month==13)
00058d e0ed      	LDI  R30,LOW(13)
00058e 15e6      	CP   R30,R6
00058f f411      	BRNE _0xFD
                 ; 0000 01FF                                                 month=1;
000590 e0e1      	LDI  R30,LOW(1)
000591 2e6e      	MOV  R6,R30
                 ; 0000 0200                                             datesetshow(i);
                 _0xFD:
000592 d6a3      	RCALL SUBOPT_0x2B
                 ; 0000 0201                                             delay_ms(500);
000593 d6a4      	RCALL SUBOPT_0x2C
                 ; 0000 0202                                             while(up){
                 _0xFE:
000594 999a      	SBIC 0x13,2
000595 c009      	RJMP _0x100
                 ; 0000 0203                                                 month++;
000596 9463      	INC  R6
                 ; 0000 0204                                                 if(month==13)
000597 e0ed      	LDI  R30,LOW(13)
000598 15e6      	CP   R30,R6
000599 f411      	BRNE _0x101
                 ; 0000 0205                                                     month=1;
00059a e0e1      	LDI  R30,LOW(1)
00059b 2e6e      	MOV  R6,R30
                 ; 0000 0206                                                 datesetshow(i);
                 _0x101:
00059c d699      	RCALL SUBOPT_0x2B
                 ; 0000 0207                                                 delay_ms(100);
00059d d69d      	RCALL SUBOPT_0x2D
                 ; 0000 0208                                             }
00059e cff5      	RJMP _0xFE
                 _0x100:
                 ; 0000 0209                                         }
                 ; 0000 020A                                         if(i==2){
                 _0xFC:
00059f 3012      	CPI  R17,2
0005a0 f479      	BRNE _0x102
                 ; 0000 020B                                             day++;
0005a1 d69b      	RCALL SUBOPT_0x2E
                 ; 0000 020C                                             if(day>miladimonth[month])
0005a2 f410      	BRSH _0x103
                 ; 0000 020D                                                 day=1;
0005a3 e0e1      	LDI  R30,LOW(1)
0005a4 2e7e      	MOV  R7,R30
                 ; 0000 020E                                             datesetshow(i);
                 _0x103:
0005a5 d690      	RCALL SUBOPT_0x2B
                 ; 0000 020F                                             delay_ms(500);
0005a6 d691      	RCALL SUBOPT_0x2C
                 ; 0000 0210                                             while(up){
                 _0x104:
0005a7 999a      	SBIC 0x13,2
0005a8 c007      	RJMP _0x106
                 ; 0000 0211                                                 day++;
0005a9 d693      	RCALL SUBOPT_0x2E
                 ; 0000 0212                                                 if(day>miladimonth[month])
0005aa f410      	BRSH _0x107
                 ; 0000 0213                                                     day=1;
0005ab e0e1      	LDI  R30,LOW(1)
0005ac 2e7e      	MOV  R7,R30
                 ; 0000 0214                                                 datesetshow(i);
                 _0x107:
0005ad d688      	RCALL SUBOPT_0x2B
                 ; 0000 0215                                                 delay_ms(100);
0005ae d68c      	RCALL SUBOPT_0x2D
                 ; 0000 0216                                             }
0005af cff7      	RJMP _0x104
                 _0x106:
                 ; 0000 0217                                         }
                 ; 0000 0218                                         if(i==3){
                 _0x102:
0005b0 3013      	CPI  R17,3
0005b1 f489      	BRNE _0x108
                 ; 0000 0219                                             week_day++;
0005b2 d692      	RCALL SUBOPT_0x2F
                 ; 0000 021A                                             if(week_day==8)
0005b3 f419      	BRNE _0x109
                 ; 0000 021B                                                 week_day=1;
0005b4 e0e1      	LDI  R30,LOW(1)
0005b5 93e0 033f 	STS  _week_day,R30
                 ; 0000 021C                                             datesetshow(i);
                 _0x109:
0005b7 d67e      	RCALL SUBOPT_0x2B
                 ; 0000 021D                                             delay_ms(500);
0005b8 d67f      	RCALL SUBOPT_0x2C
                 ; 0000 021E                                             while(up){
                 _0x10A:
0005b9 999a      	SBIC 0x13,2
0005ba c008      	RJMP _0x10C
                 ; 0000 021F                                                 week_day++;
0005bb d689      	RCALL SUBOPT_0x2F
                 ; 0000 0220                                                 if(week_day==8)
0005bc f419      	BRNE _0x10D
                 ; 0000 0221                                                     week_day=1;
0005bd e0e1      	LDI  R30,LOW(1)
0005be 93e0 033f 	STS  _week_day,R30
                 ; 0000 0222                                                 datesetshow(i);
                 _0x10D:
0005c0 d675      	RCALL SUBOPT_0x2B
                 ; 0000 0223                                                 delay_ms(100);
0005c1 d679      	RCALL SUBOPT_0x2D
                 ; 0000 0224                                             }
0005c2 cff6      	RJMP _0x10A
                 _0x10C:
                 ; 0000 0225                                         }
                 ; 0000 0226                                     }
                 _0x108:
                 ; 0000 0227                                     if(down){
                 _0xF3:
                 ; 0000 0228                                         if(i==0){}
                 ; 0000 0229                                         if(i==1){}
                 ; 0000 022A                                         if(i==2){}
                 ; 0000 022B                                         if(i==3){}
                 ; 0000 022C                                     }
                 ; 0000 022D 								}
0005c3 cf93      	RJMP _0xE6
                 _0xE8:
                 ; 0000 022E                                 rtc_set_date(week_day,day,month,year);
0005c4 d5db      	RCALL SUBOPT_0x4
0005c5 93ea      	ST   -Y,R30
0005c6 927a      	ST   -Y,R7
0005c7 926a      	ST   -Y,R6
0005c8 2da9      	MOV  R26,R9
0005c9 d32b      	RCALL _rtc_set_date
                 ; 0000 022F 							}
                 _0xE5:
                 ; 0000 0230                             while(ok);
                 _0x113:
0005ca 9b9c      	SBIS 0x13,4
0005cb cffe      	RJMP _0x113
                 ; 0000 0231                         }
                 _0xE3:
                 ; 0000 0232                     }
                 ; 0000 0233                 }
                 _0xCB:
0005cc cf22      	RJMP _0xB5
                 _0xB7:
                 ; 0000 0234                 while(set);
                 _0x116:
0005cd 9b82      	SBIS 0x10,2
0005ce cffe      	RJMP _0x116
                 ; 0000 0235             }
                 ; 0000 0236             if(page==2){ //   
                 _0xB4:
                 ; 0000 0237             }
                 ; 0000 0238         }
                 ; 0000 0239     }
                 _0x43:
0005cf cdc6      	RJMP _0x2D
                 _0x2F:
                 ; 0000 023A     while(set);
                 _0x11A:
0005d0 9b82      	SBIS 0x10,2
0005d1 cffe      	RJMP _0x11A
                 ; 0000 023B #asm("sei")
0005d2 9478      	sei
                 ; 0000 023C }
0005d3 da19      	RCALL __LOADLOCR2
0005d4 9626      	ADIW R28,6
0005d5 91e9      	LD   R30,Y+
0005d6 bfef      	OUT  SREG,R30
0005d7 91f9      	LD   R31,Y+
0005d8 91e9      	LD   R30,Y+
0005d9 91b9      	LD   R27,Y+
0005da 91a9      	LD   R26,Y+
0005db 9199      	LD   R25,Y+
0005dc 9189      	LD   R24,Y+
0005dd 9179      	LD   R23,Y+
0005de 9169      	LD   R22,Y+
0005df 90f9      	LD   R15,Y+
0005e0 9019      	LD   R1,Y+
0005e1 9009      	LD   R0,Y+
0005e2 9518      	RETI
                 
                 	.DSEG
                 _0x31:
000188           	.BYTE 0x1A5
                 ;
                 ;///////////////////////////////////////////////////
                 ;char dht22(float *temp,float *humi)
                 ; 0000 0240 {
                 
                 	.CSEG
                 _dht22:
                 ; 0000 0241 int Temp=0,Humi=0;
                 ; 0000 0242 char check=0;
                 ; 0000 0243 unsigned char temppart1,temppart2,humipart1,humipart2,count=0;
                 ; 0000 0244 int data[40];
                 ; 0000 0245 char i=0;
                 ; 0000 0246 DDRC.0=0;
0005e3 d668      	RCALL SUBOPT_0x30
0005e4 97ef      	SBIW R28,63
0005e5 9766      	SBIW R28,22
0005e6 e582      	LDI  R24,82
0005e7 e0a0      	LDI  R26,LOW(0)
0005e8 e0b0      	LDI  R27,HIGH(0)
0005e9 eae2      	LDI  R30,LOW(_0x11D*2)
0005ea e0f0      	LDI  R31,HIGH(_0x11D*2)
0005eb da04      	RCALL __INITLOCB
0005ec d9f5      	RCALL __SAVELOCR6
                 ;	*temp -> Y+93
                 ;	*humi -> Y+91
                 ;	Temp -> R16,R17
                 ;	Humi -> R18,R19
                 ;	check -> R21
                 ;	temppart1 -> R20
                 ;	temppart2 -> Y+90
                 ;	humipart1 -> Y+89
                 ;	humipart2 -> Y+88
                 ;	count -> Y+87
                 ;	data -> Y+7
                 ;	i -> Y+6
                +
0005ed e000     +LDI R16 , LOW ( 0 )
0005ee e010     +LDI R17 , HIGH ( 0 )
                 	__GETWRN 16,17,0
                +
0005ef e020     +LDI R18 , LOW ( 0 )
0005f0 e030     +LDI R19 , HIGH ( 0 )
                 	__GETWRN 18,19,0
0005f1 e050      	LDI  R21,0
0005f2 98a0      	CBI  0x14,0
                 ; 0000 0247 PORTC.0=0;
0005f3 98a8      	CBI  0x15,0
                 ; 0000 0248  for (i=0;i<41;i++){
0005f4 d65a      	RCALL SUBOPT_0x31
                 _0x123:
0005f5 81ae      	LDD  R26,Y+6
0005f6 32a9      	CPI  R26,LOW(0x29)
0005f7 f428      	BRSH _0x124
                 ; 0000 0249     data[i]=0;
0005f8 d659      	RCALL SUBOPT_0x32
0005f9 d65f      	RCALL SUBOPT_0x33
0005fa d661      	RCALL SUBOPT_0x34
                 ; 0000 024A  }
0005fb d665      	RCALL SUBOPT_0x35
0005fc cff8      	RJMP _0x123
                 _0x124:
                 ; 0000 024B DHT22_INPUT_MODE
0005fd 98a1      	CBI  0x14,1
                 ; 0000 024C count=0;
0005fe d666      	RCALL SUBOPT_0x36
                 ; 0000 024D DHT22_LOW //      
0005ff 98a9      	CBI  0x15,1
                 ; 0000 024E DHT22_OUTPUT_MODE
000600 9aa1      	SBI  0x14,1
                 ; 0000 024F delay_us(1100);
                +
000601 e988     +LDI R24 , LOW ( 2200 )
000602 e098     +LDI R25 , HIGH ( 2200 )
                +__DELAY_USW_LOOP :
000603 9701     +SBIW R24 , 1
000604 f7f1     +BRNE __DELAY_USW_LOOP
                 	__DELAY_USW 2200
                 ; 0000 0250 //DHT22_HIGH
                 ; 0000 0251 lcd_gotoxy(2,0);
000605 e0e2      	LDI  R30,LOW(2)
000606 d620      	RCALL SUBOPT_0x29
                 ; 0000 0252 DHT22_INPUT_MODE
000607 98a1      	CBI  0x14,1
                 ; 0000 0253 //        
                 ; 0000 0254  do{
                 _0x12E:
                 ; 0000 0255     if(count>20)
000608 d662      	RCALL SUBOPT_0x37
000609 31a5      	CPI  R26,LOW(0x15)
00060a f008      	BRLO _0x130
                 ; 0000 0256         return 0;
00060b c0b4      	RJMP _0x210000B
                 ; 0000 0257     count++;
                 _0x130:
00060c d663      	RCALL SUBOPT_0x38
                 ; 0000 0258     delay_us(2);
                 ; 0000 0259  }while(DHT22_READ);
00060d 9999      	SBIC 0x13,1
00060e cff9      	RJMP _0x12E
                 ; 0000 025A count=0;
00060f d655      	RCALL SUBOPT_0x36
                 ; 0000 025B //           
                 ; 0000 025C  do{
                 _0x132:
                 ; 0000 025D     if(count>45)
000610 d65a      	RCALL SUBOPT_0x37
000611 32ae      	CPI  R26,LOW(0x2E)
000612 f008      	BRLO _0x134
                 ; 0000 025E         return 0;
000613 c0ac      	RJMP _0x210000B
                 ; 0000 025F     count++;
                 _0x134:
000614 d65b      	RCALL SUBOPT_0x38
                 ; 0000 0260     delay_us(2);
                 ; 0000 0261  }while(!DHT22_READ);
000615 9b99      	SBIS 0x13,1
000616 cff9      	RJMP _0x132
                 ; 0000 0262 count=0;
000617 d64d      	RCALL SUBOPT_0x36
                 ; 0000 0263 //        
                 ; 0000 0264  do{
                 _0x136:
                 ; 0000 0265     if(count>45)
000618 d652      	RCALL SUBOPT_0x37
000619 32ae      	CPI  R26,LOW(0x2E)
00061a f008      	BRLO _0x138
                 ; 0000 0266         return 0;
00061b c0a4      	RJMP _0x210000B
                 ; 0000 0267     count++;
                 _0x138:
00061c d653      	RCALL SUBOPT_0x38
                 ; 0000 0268     delay_us(2);
                 ; 0000 0269  }while(DHT22_READ);
00061d 9999      	SBIC 0x13,1
00061e cff9      	RJMP _0x136
                 ; 0000 026A  count=0;
00061f d645      	RCALL SUBOPT_0x36
                 ; 0000 026B //    
                 ; 0000 026C //        
                 ; 0000 026D //           
                 ; 0000 026E //  
                 ; 0000 026F //      
                 ; 0000 0270 //  70       26   
                 ; 0000 0271 for(i=0; i<40; i++)
000620 d62e      	RCALL SUBOPT_0x31
                 _0x13A:
000621 81ae      	LDD  R26,Y+6
000622 32a8      	CPI  R26,LOW(0x28)
000623 f508      	BRSH _0x13B
                 ; 0000 0272     {
                 ; 0000 0273      do{
                 _0x13D:
                 ; 0000 0274         if(count>33)
000624 d646      	RCALL SUBOPT_0x37
000625 32a2      	CPI  R26,LOW(0x22)
000626 f008      	BRLO _0x13F
                 ; 0000 0275             return 0;
000627 c098      	RJMP _0x210000B
                 ; 0000 0276         count++;
                 _0x13F:
000628 01de      	MOVW R26,R28
000629 5aa9      	SUBI R26,LOW(-(87))
00062a 4fbf      	SBCI R27,HIGH(-(87))
00062b 91ec      	LD   R30,X
00062c 5fef      	SUBI R30,-LOW(1)
00062d 93ec      	ST   X,R30
                 ; 0000 0277         //delay_us(1);
                 ; 0000 0278      }while(!DHT22_READ);
00062e 9b99      	SBIS 0x13,1
00062f cff4      	RJMP _0x13D
                 ; 0000 0279 
                 ; 0000 027A      count=0;
000630 d634      	RCALL SUBOPT_0x36
                 ; 0000 027B      do{
                 _0x141:
                 ; 0000 027C         if(count>40)
000631 d639      	RCALL SUBOPT_0x37
000632 32a9      	CPI  R26,LOW(0x29)
000633 f008      	BRLO _0x143
                 ; 0000 027D             return 0;
000634 c08b      	RJMP _0x210000B
                 ; 0000 027E         count++;
                 _0x143:
000635 d63a      	RCALL SUBOPT_0x38
                 ; 0000 027F         delay_us(2);
                 ; 0000 0280      }while(DHT22_READ);
000636 9999      	SBIC 0x13,1
000637 cff9      	RJMP _0x141
                 ; 0000 0281      data[i]=count;
000638 d619      	RCALL SUBOPT_0x32
000639 0fae      	ADD  R26,R30
00063a 1fbf      	ADC  R27,R31
                +
00063b 01fe     +MOVW R30 , R28
00063c 5ae9     +SUBI R30 , LOW ( - 87 )
00063d 4fff     +SBCI R31 , HIGH ( - 87 )
00063e 81e0     +LD R30 , Z
                 	__GETB1SX 87
00063f d63a      	RCALL SUBOPT_0x39
000640 93ed      	ST   X+,R30
000641 93fc      	ST   X,R31
                 ; 0000 0282      count=0;
000642 d622      	RCALL SUBOPT_0x36
                 ; 0000 0283     }
000643 d61d      	RCALL SUBOPT_0x35
000644 cfdc      	RJMP _0x13A
                 _0x13B:
                 ; 0000 0284 ///        
                 ; 0000 0285 //              
                 ; 0000 0286  for(i=0;i<16;i++){  // for humidity
000645 d609      	RCALL SUBOPT_0x31
                 _0x145:
000646 81ae      	LDD  R26,Y+6
000647 31a0      	CPI  R26,LOW(0x10)
000648 f448      	BRSH _0x146
                 ; 0000 0287     if(data[i]>6){
000649 d608      	RCALL SUBOPT_0x32
00064a d631      	RCALL SUBOPT_0x3A
00064b f024      	BRLT _0x147
                 ; 0000 0288         Humi |= (1<<(15-i));//    
00064c d633      	RCALL SUBOPT_0x3B
00064d d634      	RCALL SUBOPT_0x3C
                +
00064e 2b2e     +OR R18 , R30
00064f 2b3f     +OR R19 , R31
                 	__ORWRR 18,19,30,31
                 ; 0000 0289     }
                 ; 0000 028A  }
                 _0x147:
000650 d610      	RCALL SUBOPT_0x35
000651 cff4      	RJMP _0x145
                 _0x146:
                 ; 0000 028B  for (i=0;i<16;i++){    // for temperature
000652 d5fc      	RCALL SUBOPT_0x31
                 _0x149:
000653 81ae      	LDD  R26,Y+6
000654 31a0      	CPI  R26,LOW(0x10)
000655 f450      	BRSH _0x14A
                 ; 0000 028C     if(data[16+i]>6){
000656 d629      	RCALL SUBOPT_0x3B
000657 9670      	ADIW R30,16
000658 d632      	RCALL SUBOPT_0x3D
000659 f024      	BRLT _0x14B
                 ; 0000 028D         Temp |= (1<<(15-i));
00065a d625      	RCALL SUBOPT_0x3B
00065b d626      	RCALL SUBOPT_0x3C
                +
00065c 2b0e     +OR R16 , R30
00065d 2b1f     +OR R17 , R31
                 	__ORWRR 16,17,30,31
                 ; 0000 028E     }
                 ; 0000 028F  }
                 _0x14B:
00065e d602      	RCALL SUBOPT_0x35
00065f cff3      	RJMP _0x149
                 _0x14A:
                 ; 0000 0290  for (i=0;i<8;i++){    // for check bit
000660 d5ee      	RCALL SUBOPT_0x31
                 _0x14D:
000661 81ae      	LDD  R26,Y+6
000662 30a8      	CPI  R26,LOW(0x8)
000663 f460      	BRSH _0x14E
                 ; 0000 0291     if(data[32+i]>6){
000664 d61b      	RCALL SUBOPT_0x3B
000665 96b0      	ADIW R30,32
000666 d624      	RCALL SUBOPT_0x3D
000667 f034      	BRLT _0x14F
                 ; 0000 0292         check |= (1<<(7-i));
000668 81ae      	LDD  R26,Y+6
000669 e0e7      	LDI  R30,LOW(7)
00066a 1bea      	SUB  R30,R26
00066b e0a1      	LDI  R26,LOW(1)
00066c d901      	RCALL __LSLB12
00066d 2b5e      	OR   R21,R30
                 ; 0000 0293     }
                 ; 0000 0294  }
                 _0x14F:
00066e d5f2      	RCALL SUBOPT_0x35
00066f cff1      	RJMP _0x14D
                 _0x14E:
                 ; 0000 0295 temppart1=Temp>>8;
000670 01f8      	MOVW R30,R16
000671 d90d      	RCALL __ASRW8
000672 2f4e      	MOV  R20,R30
                 ; 0000 0296 temppart2=Temp & 0xFF;
000673 2fe0      	MOV  R30,R16
                +
000674 01de     +MOVW R26 , R28
000675 5aa6     +SUBI R26 , LOW ( - 90 )
000676 4fbf     +SBCI R27 , HIGH ( - 90 )
000677 93ec     +ST X , R30
                 	__PUTB1SX 90
                 ; 0000 0297 humipart1=Humi>>8;
000678 01f9      	MOVW R30,R18
000679 d905      	RCALL __ASRW8
                +
00067a 01de     +MOVW R26 , R28
00067b 5aa7     +SUBI R26 , LOW ( - 89 )
00067c 4fbf     +SBCI R27 , HIGH ( - 89 )
00067d 93ec     +ST X , R30
                 	__PUTB1SX 89
                 ; 0000 0298 humipart2=Humi & 0xFF;
00067e 2fe2      	MOV  R30,R18
                +
00067f 01de     +MOVW R26 , R28
000680 5aa8     +SUBI R26 , LOW ( - 88 )
000681 4fbf     +SBCI R27 , HIGH ( - 88 )
000682 93ec     +ST X , R30
                 	__PUTB1SX 88
                 ; 0000 0299 *humi=(((float)Humi)/10.0);
000683 01f9      	MOVW R30,R18
000684 d60b      	RCALL SUBOPT_0x3E
                +
000685 01de     +MOVW R26 , R28
000686 5aa5     +SUBI R26 , LOW ( - 91 )
000687 4fbf     +SBCI R27 , HIGH ( - 91 )
000688 900d     +LD R0 , X +
000689 91bc     +LD R27 , X
00068a 2da0     +MOV R26 , R0
                 	__GETW2SX 91
00068b d927      	RCALL __PUTDP1
                 ; 0000 029A  if(Temp & 0x8000){
00068c ff17      	SBRS R17,7
00068d c009      	RJMP _0x150
                 ; 0000 029B     Temp=(Temp&0x7FFF);
00068e 771f      	ANDI R17,HIGH(32767)
                 ; 0000 029C     *temp=(((float)Temp)/10.0*(-1));
00068f 01f8      	MOVW R30,R16
000690 d5ff      	RCALL SUBOPT_0x3E
                +
000691 e0a0     +LDI R26 , LOW ( 0xBF800000 )
000692 e0b0     +LDI R27 , HIGH ( 0xBF800000 )
000693 e880     +LDI R24 , BYTE3 ( 0xBF800000 )
000694 eb9f     +LDI R25 , BYTE4 ( 0xBF800000 )
                 	__GETD2N 0xBF800000
000695 d815      	RCALL __MULF12
000696 c002      	RJMP _0x185
                 ; 0000 029D  }else{
                 _0x150:
                 ; 0000 029E     *temp=(((float)Temp)/10.0);
000697 01f8      	MOVW R30,R16
000698 d5f7      	RCALL SUBOPT_0x3E
                 _0x185:
                +
000699 01de     +MOVW R26 , R28
00069a 5aa3     +SUBI R26 , LOW ( - 93 )
00069b 4fbf     +SBCI R27 , HIGH ( - 93 )
00069c 900d     +LD R0 , X +
00069d 91bc     +LD R27 , X
00069e 2da0     +MOV R26 , R0
                 	__GETW2SX 93
00069f d913      	RCALL __PUTDP1
                 ; 0000 029F  }
                 ; 0000 02A0 if(((temppart1+temppart2+humipart1+humipart2)&0xFF) == check)
0006a0 2fa4      	MOV  R26,R20
0006a1 27bb      	CLR  R27
                +
0006a2 01fe     +MOVW R30 , R28
0006a3 5ae6     +SUBI R30 , LOW ( - 90 )
0006a4 4fff     +SBCI R31 , HIGH ( - 90 )
0006a5 81e0     +LD R30 , Z
                 	__GETB1SX 90
0006a6 d5d3      	RCALL SUBOPT_0x39
0006a7 d5b1      	RCALL SUBOPT_0x33
                +
0006a8 01fe     +MOVW R30 , R28
0006a9 5ae7     +SUBI R30 , LOW ( - 89 )
0006aa 4fff     +SBCI R31 , HIGH ( - 89 )
0006ab 81e0     +LD R30 , Z
                 	__GETB1SX 89
0006ac d5cd      	RCALL SUBOPT_0x39
0006ad d5ab      	RCALL SUBOPT_0x33
                +
0006ae 01fe     +MOVW R30 , R28
0006af 5ae8     +SUBI R30 , LOW ( - 88 )
0006b0 4fff     +SBCI R31 , HIGH ( - 88 )
0006b1 81e0     +LD R30 , Z
                 	__GETB1SX 88
0006b2 d5c7      	RCALL SUBOPT_0x39
0006b3 d5a5      	RCALL SUBOPT_0x33
0006b4 efef      	LDI  R30,LOW(255)
0006b5 e0f0      	LDI  R31,HIGH(255)
0006b6 23ea      	AND  R30,R26
0006b7 23fb      	AND  R31,R27
0006b8 01df      	MOVW R26,R30
0006b9 2fe5      	MOV  R30,R21
0006ba d5bf      	RCALL SUBOPT_0x39
0006bb 17ea      	CP   R30,R26
0006bc 07fb      	CPC  R31,R27
0006bd f411      	BRNE _0x152
                 ; 0000 02A1     return 1;
0006be e0e1      	LDI  R30,LOW(1)
0006bf c001      	RJMP _0x210000A
                 ; 0000 02A2 return 0;
                 _0x152:
                 _0x210000B:
0006c0 e0e0      	LDI  R30,LOW(0)
                 _0x210000A:
0006c1 d927      	RCALL __LOADLOCR6
0006c2 96ef      	ADIW R28,63
0006c3 96a0      	ADIW R28,32
0006c4 9508      	RET
                 ; 0000 02A3 }
                 ;//////////////////////////////////////////////////
                 ;
                 ;void miladitoshamsi(unsigned char dm,unsigned char mm,unsigned char ym){
                 ; 0000 02A6 void miladitoshamsi(unsigned char dm,unsigned char mm,unsigned char ym){
                 _miladitoshamsi:
                 ; 0000 02A7 
                 ; 0000 02A8     unsigned char i=0;
                 ; 0000 02A9     int sumdaymiladi=0,sumdayshamsi=0;
                 ; 0000 02AA     sal=0,rooz=0;mah=1;
0006c5 93aa      	ST   -Y,R26
0006c6 d91b      	RCALL __SAVELOCR6
                 ;	dm -> Y+8
                 ;	mm -> Y+7
                 ;	ym -> Y+6
                 ;	i -> R17
                 ;	sumdaymiladi -> R18,R19
                 ;	sumdayshamsi -> R20,R21
0006c7 e010      	LDI  R17,0
                +
0006c8 e020     +LDI R18 , LOW ( 0 )
0006c9 e030     +LDI R19 , HIGH ( 0 )
                 	__GETWRN 18,19,0
                +
0006ca e040     +LDI R20 , LOW ( 0 )
0006cb e050     +LDI R21 , HIGH ( 0 )
                 	__GETWRN 20,21,0
0006cc 24aa      	CLR  R10
0006cd 24bb      	CLR  R11
0006ce 2444      	CLR  R4
0006cf e0e1      	LDI  R30,LOW(1)
0006d0 2e5e      	MOV  R5,R30
                 ; 0000 02AB     if (leap(ym))
0006d1 81ae      	LDD  R26,Y+6
0006d2 dc8b      	RCALL _leap
0006d3 30e0      	CPI  R30,0
0006d4 f011      	BREQ _0x153
                 ; 0000 02AC         miladimonth[1]=29; /// the year is leep
0006d5 e1ed      	LDI  R30,LOW(29)
0006d6 c001      	RJMP _0x186
                 ; 0000 02AD     else
                 _0x153:
                 ; 0000 02AE         miladimonth[1]=28;  /// the year is not leap
0006d7 e1ec      	LDI  R30,LOW(28)
                 _0x186:
                +
0006d8 93e0 0341+STS _miladimonth + ( 1 ) , R30
                 	__PUTB1MN _miladimonth,1
                 ; 0000 02AF     for (i=0;i<mm-1;i++){
0006da e010      	LDI  R17,LOW(0)
                 _0x156:
0006db 81ef      	LDD  R30,Y+7
0006dc d59d      	RCALL SUBOPT_0x39
0006dd 9731      	SBIW R30,1
0006de 2fa1      	MOV  R26,R17
0006df d5ba      	RCALL SUBOPT_0x3F
0006e0 17ae      	CP   R26,R30
0006e1 07bf      	CPC  R27,R31
0006e2 f454      	BRGE _0x157
                 ; 0000 02B0         sumdaymiladi += miladimonth[i];
0006e3 2fe1      	MOV  R30,R17
0006e4 d595      	RCALL SUBOPT_0x39
0006e5 5ce0      	SUBI R30,LOW(-_miladimonth)
0006e6 4ffc      	SBCI R31,HIGH(-_miladimonth)
0006e7 81e0      	LD   R30,Z
0006e8 d591      	RCALL SUBOPT_0x39
                +
0006e9 0f2e     +ADD R18 , R30
0006ea 1f3f     +ADC R19 , R31
                 	__ADDWRR 18,19,30,31
                 ; 0000 02B1     }
0006eb 5f1f      	SUBI R17,-1
0006ec cfee      	RJMP _0x156
                 _0x157:
                 ; 0000 02B2     i=0;
0006ed e010      	LDI  R17,LOW(0)
                 ; 0000 02B3     sumdaymiladi += dm;
0006ee 85e8      	LDD  R30,Y+8
0006ef d58a      	RCALL SUBOPT_0x39
                +
0006f0 0f2e     +ADD R18 , R30
0006f1 1f3f     +ADC R19 , R31
                 	__ADDWRR 18,19,30,31
                 ; 0000 02B4     if(sumdaymiladi<=79){
                +
0006f2 3520     +CPI R18 , LOW ( 80 )
0006f3 e0e0     +LDI R30 , HIGH ( 80 )
0006f4 073e     +CPC R19 , R30
                 	__CPWRN 18,19,80
0006f5 f4cc      	BRGE _0x158
                 ; 0000 02B5         sal=(ym+2000)-622;
0006f6 d589      	RCALL SUBOPT_0x3B
0006f7 53e0      	SUBI R30,LOW(-2000)
0006f8 4ff8      	SBCI R31,HIGH(-2000)
0006f9 56ee      	SUBI R30,LOW(622)
0006fa 40f2      	SBCI R31,HIGH(622)
0006fb 015f      	MOVW R10,R30
                 ; 0000 02B6         if (leap(ym-1))
0006fc 81ae      	LDD  R26,Y+6
0006fd 50a1      	SUBI R26,LOW(1)
0006fe dc5f      	RCALL _leap
0006ff 30e0      	CPI  R30,0
000700 f031      	BREQ _0x159
                 ; 0000 02B7         {
                 ; 0000 02B8             sumdayshamsi=sumdaymiladi+287;
000701 01f9      	MOVW R30,R18
000702 5ee1      	SUBI R30,LOW(-287)
000703 4ffe      	SBCI R31,HIGH(-287)
000704 01af      	MOVW R20,R30
                 ; 0000 02B9             shamsimonth[11]=30;
000705 e1ee      	LDI  R30,LOW(30)
000706 c005      	RJMP _0x187
                 ; 0000 02BA         }
                 ; 0000 02BB         else
                 _0x159:
                 ; 0000 02BC         {
                 ; 0000 02BD             sumdayshamsi=sumdaymiladi+286;
000707 01f9      	MOVW R30,R18
000708 5ee2      	SUBI R30,LOW(-286)
000709 4ffe      	SBCI R31,HIGH(-286)
00070a 01af      	MOVW R20,R30
                 ; 0000 02BE             shamsimonth[11]=29;
00070b e1ed      	LDI  R30,LOW(29)
                 _0x187:
                +
00070c 93e0 0357+STS _shamsimonth + ( 11 ) , R30
                 	__PUTB1MN _shamsimonth,11
                 ; 0000 02BF         }
                 ; 0000 02C0     }else{
00070e c00a      	RJMP _0x15B
                 _0x158:
                 ; 0000 02C1         sal=(ym+2000)-621;
00070f d570      	RCALL SUBOPT_0x3B
000710 53e0      	SUBI R30,LOW(-2000)
000711 4ff8      	SBCI R31,HIGH(-2000)
000712 56ed      	SUBI R30,LOW(621)
000713 40f2      	SBCI R31,HIGH(621)
000714 015f      	MOVW R10,R30
                 ; 0000 02C2         sumdayshamsi=sumdaymiladi-79;
000715 01f9      	MOVW R30,R18
000716 54ef      	SUBI R30,LOW(79)
000717 40f0      	SBCI R31,HIGH(79)
000718 01af      	MOVW R20,R30
                 ; 0000 02C3     }
                 _0x15B:
                 ; 0000 02C4     if (sumdayshamsi<=186 && sumdayshamsi>31){
                +
000719 3b4b     +CPI R20 , LOW ( 187 )
00071a e0e0     +LDI R30 , HIGH ( 187 )
00071b 075e     +CPC R21 , R30
                 	__CPWRN 20,21,187
00071c f424      	BRGE _0x15D
                +
00071d 3240     +CPI R20 , LOW ( 32 )
00071e e0e0     +LDI R30 , HIGH ( 32 )
00071f 075e     +CPC R21 , R30
                 	__CPWRN 20,21,32
000720 f40c      	BRGE _0x15E
                 _0x15D:
000721 c007      	RJMP _0x15C
                 _0x15E:
                 ; 0000 02C5         while(sumdayshamsi>31){
                 _0x15F:
                +
000722 3240     +CPI R20 , LOW ( 32 )
000723 e0e0     +LDI R30 , HIGH ( 32 )
000724 075e     +CPC R21 , R30
                 	__CPWRN 20,21,32
000725 f014      	BRLT _0x161
                 ; 0000 02C6             sumdayshamsi-=shamsimonth[i];
000726 d575      	RCALL SUBOPT_0x40
                 ; 0000 02C7             mah++;
                 ; 0000 02C8             i++;
                 ; 0000 02C9         }
000727 cffa      	RJMP _0x15F
                 _0x161:
                 ; 0000 02CA     }else{
000728 c006      	RJMP _0x162
                 _0x15C:
                 ; 0000 02CB         while(sumdayshamsi>30){
                 _0x163:
                +
000729 314f     +CPI R20 , LOW ( 31 )
00072a e0e0     +LDI R30 , HIGH ( 31 )
00072b 075e     +CPC R21 , R30
                 	__CPWRN 20,21,31
00072c f014      	BRLT _0x165
                 ; 0000 02CC             sumdayshamsi-=shamsimonth[i];
00072d d56e      	RCALL SUBOPT_0x40
                 ; 0000 02CD             mah++;
                 ; 0000 02CE             i++;
                 ; 0000 02CF         }
00072e cffa      	RJMP _0x163
                 _0x165:
                 ; 0000 02D0     }
                 _0x162:
                 ; 0000 02D1 	rooz=sumdayshamsi;
00072f 2e44      	MOV  R4,R20
                 ; 0000 02D2 }
000730 d8b8      	RCALL __LOADLOCR6
000731 9629      	ADIW R28,9
000732 9508      	RET
                 ;////////////////////////////////////////////////
                 ;/*
                 ;void shamsitomiladi(unsigned char dsh,unsigned char msh,int ysh){
                 ;    unsigned char i=0;
                 ;    int sumdaymiladi=0,sumdayshamsi=0,ym;
                 ;    //sal=0,rooz=0;mah=1;
                 ;	for (i=0; i<msh-1;i++){
                 ;		sumdayshamsi+=shamsimonth[i];
                 ;	}
                 ;	sumdayshamsi+=dsh;
                 ;    if(sumdayshamsi<=286){
                 ;        ym=ysh+621;
                 ;        if(((((ysh+622)%4)==0)&&(((ysh+622)%100)!=0))||((((ysh+622)%100)==0)&&(((ysh+622)%400)==0)) ||((((ysh+621)%4)==0)&&(((ysh+621)%100)!=0))||((((ysh+621)%100)==0)&&(((ysh+621)%400)==0))){
                 ;		    sumdaymiladi=sumdayshamsi+80; ///chert
                 ;        }else{
                 ;            sumdaymiladi=sumdayshamsi+79;
                 ;        }
                 ;
                 ;    }
                 ;	if(sumdayshamsi>=289){
                 ;        ym=ysh+622;
                 ;        if(((((ysh+621)%4)==0)&&(((ysh+621)%100)!=0))||((((ysh+621)%100)==0)&&(((ysh+621)%400)==0))){
                 ;            sumdaymiladi=sumdayshamsi-287;
                 ;        }else{
                 ;            sumdaymiladi=sumdayshamsi-286;
                 ;        }   /////
                 ;    }
                 ;
                 ;    if(sumdayshamsi==287){
                 ;		if (((((ysh+621)%4)==0)&&(((ysh+621)%100)!=0))||((((ysh+621)%100)==0)&&(((ysh+621)%400)==0))){
                 ;			ym=ysh+621;
                 ;			sumdaymiladi=sumdayshamsi+79;
                 ;		}else{
                 ;			ym=ysh+622;
                 ;			sumdaymiladi=sumdayshamsi-286;
                 ;		}
                 ;	}
                 ;    if(sumdayshamsi==288){
                 ;		if (((((ysh+621)%4)==0)&&(((ysh+621)%100)!=0))||((((ysh+621)%100)==0)&&(((ysh+621)%400)==0))){
                 ;			ym=ysh+622;
                 ;			sumdaymiladi=sumdayshamsi-287;
                 ;		}else{
                 ;			ym=ysh+622;
                 ;			sumdaymiladi=sumdayshamsi-286;
                 ;		}
                 ;	}
                 ;
                 ;	if ((((ym%4)==0)&&((ym%100)!=0))||(((ym%100)==0)&&((ym%400)==0))){
                 ;		miladimonth[1]=29;
                 ;	}else{
                 ;		miladimonth[1]=28;
                 ;	}
                 ;	i=0;
                 ;	month=1;
                 ;	while(sumdaymiladi>31){
                 ;        sumdaymiladi-=miladimonth[i];
                 ;        month++;
                 ;        i++;
                 ;    }
                 ;
                 ;	if ((((ym%4)==0)&&((ym%100)!=0))||(((ym%100)==0)&&((ym%400)==0))){
                 ;		if (i==1 && sumdaymiladi>29){
                 ;			month++;
                 ;			sumdaymiladi-=miladimonth[1];
                 ;		}
                 ;	}else{
                 ;		if ((i==1 && sumdaymiladi>28)|| ((i==3 || i==5 || i==8 || i==10) && sumdaymiladi>30)){
                 ;			if(i==1){
                 ;				month++;
                 ;				sumdaymiladi-=miladimonth[1];
                 ;			}
                 ;			if(i==3 || i==5 || i==8 || i==10){
                 ;				month++;
                 ;				sumdaymiladi-=miladimonth[3];
                 ;			}
                 ;		}
                 ;	}
                 ;	day=sumdaymiladi;
                 ;    year=(ym%10)+(((ym/10)%10)*10);
                 ;}
                 ;////////////////////////////////////////////////
                 ;*/
                 ;
                 ;void main(void)
                 ; 0000 0327 {
                 _main:
                 ; 0000 0328 char humidity[4],temperature[4],str_date[4];//str_week_day[1];
                 ; 0000 0329 char controlbyte;
                 ; 0000 032A bit pmam;
                 ; 0000 032B float temp,humi;
                 ; 0000 032C {
000733 9764      	SBIW R28,20
                 ;	humidity -> Y+16
                 ;	temperature -> Y+12
                 ;	str_date -> Y+8
                 ;	controlbyte -> R17
                 ;	pmam -> R15.0
                 ;	temp -> Y+4
                 ;	humi -> Y+0
                 ; 0000 032D 
                 ; 0000 032E 
                 ; 0000 032F PORTD=0x38;
000734 e3e8      	LDI  R30,LOW(56)
000735 bbe2      	OUT  0x12,R30
                 ; 0000 0330 DDRD.2=0;
000736 988a      	CBI  0x11,2
                 ; 0000 0331 //DDRD.3=0;DDRD.4=0;
                 ; 0000 0332 
                 ; 0000 0333 // Timer/Counter 0 initialization
                 ; 0000 0334 // Clock source: System Clock
                 ; 0000 0335 // Clock value: Timer 0 Stopped
                 ; 0000 0336 // External Interrupt(s) initialization
                 ; 0000 0337 // INT0: On
                 ; 0000 0338 // INT0 Mode: Any change
                 ; 0000 0339 // INT1: Off
                 ; 0000 033A GICR|=0x40;
000737 b7eb      	IN   R30,0x3B
000738 64e0      	ORI  R30,0x40
000739 bfeb      	OUT  0x3B,R30
                 ; 0000 033B MCUCR=0x01;
00073a e0e1      	LDI  R30,LOW(1)
00073b bfe5      	OUT  0x35,R30
                 ; 0000 033C GIFR=0x40;
00073c e4e0      	LDI  R30,LOW(64)
00073d bfea      	OUT  0x3A,R30
                 ; 0000 033D 
                 ; 0000 033E // Analog Comparator initialization
                 ; 0000 033F // Analog Comparator: Off
                 ; 0000 0340 // Analog Comparator Input Capture by Timer/Counter 1: Off
                 ; 0000 0341 ACSR=0x80;
00073e e8e0      	LDI  R30,LOW(128)
00073f b9e8      	OUT  0x8,R30
                 ; 0000 0342 SFIOR=0x00;
000740 e0e0      	LDI  R30,LOW(0)
000741 bfe0      	OUT  0x30,R30
                 ; 0000 0343 
                 ; 0000 0344 // ADC initialization
                 ; 0000 0345 // ADC disabled
                 ; 0000 0346 ADCSRA=0x00;
000742 b9e6      	OUT  0x6,R30
                 ; 0000 0347 // I2C Bus initialization
                 ; 0000 0348 // I2C Port: PORTD
                 ; 0000 0349 // I2C SDA bit: 1
                 ; 0000 034A // I2C SCL bit: 0
                 ; 0000 034B // Bit Rate: 100 kHz
                 ; 0000 034C // Note: I2C settings are specified in the
                 ; 0000 034D // Project|Configure|C Compiler|Libraries|I2C menu.
                 ; 0000 034E i2c_init();
000743 d616      	RCALL _i2c_init
                 ; 0000 034F 
                 ; 0000 0350 // DS1307 Real Time Clock initialization
                 ; 0000 0351 // Square wave output on pin SQW/OUT: Off
                 ; 0000 0352 // SQW/OUT pin state: 0
                 ; 0000 0353 rtc_init(0,0,0);
000744 d562      	RCALL SUBOPT_0x41
000745 d561      	RCALL SUBOPT_0x41
000746 e0a0      	LDI  R26,LOW(0)
000747 d169      	RCALL _rtc_init
                 ; 0000 0354 
                 ; 0000 0355 // Alphanumeric LCD initialization
                 ; 0000 0356 // Connections are specified in the
                 ; 0000 0357 // Project|Configure|C Compiler|Libraries|Alphanumeric LCD menu:
                 ; 0000 0358 // RS - PORTB Bit 0
                 ; 0000 0359 // RD - PORTB Bit 1
                 ; 0000 035A // EN - PORTB Bit 2
                 ; 0000 035B // D4 - PORTB Bit 4
                 ; 0000 035C // D5 - PORTB Bit 5
                 ; 0000 035D // D6 - PORTB Bit 6
                 ; 0000 035E // D7 - PORTB Bit 7
                 ; 0000 035F // Characters/line: 20
                 ; 0000 0360 
                 ; 0000 0361   #asm("sei")
000748 9478      	sei
                 ; 0000 0362 }
                 ; 0000 0363   lcd_init(20);
000749 e1a4      	LDI  R26,LOW(20)
00074a d236      	RCALL _lcd_init
                 ; 0000 0364   rtc_get_time(&hour,&miin,&sec);
00074b d4be      	RCALL SUBOPT_0x22
                 ; 0000 0365   if (sec>61){
00074c e3ed      	LDI  R30,LOW(61)
00074d 15ec      	CP   R30,R12
00074e f468      	BRSH _0x168
                 ; 0000 0366     rtc_set_time(8,0,0);
00074f e0e8      	LDI  R30,LOW(8)
000750 93ea      	ST   -Y,R30
000751 d555      	RCALL SUBOPT_0x41
000752 e0a0      	LDI  R26,LOW(0)
000753 d184      	RCALL _rtc_set_time
                 ; 0000 0367     rtc_set_date(2,12,12,2017);
000754 e0e2      	LDI  R30,LOW(2)
000755 93ea      	ST   -Y,R30
000756 e0ec      	LDI  R30,LOW(12)
000757 93ea      	ST   -Y,R30
000758 93ea      	ST   -Y,R30
000759 eea1      	LDI  R26,LOW(225)
00075a d19a      	RCALL _rtc_set_date
                 ; 0000 0368     rtc_write(0x08,0x00);
00075b d54e      	RCALL SUBOPT_0x42
                 ; 0000 0369   }
                 ; 0000 036A   rtc_write(0x08,0x00);
                 _0x168:
00075c d54d      	RCALL SUBOPT_0x42
                 ; 0000 036B     define_char(char3,3);
00075d e3e6      	LDI  R30,LOW(_char3*2)
00075e e0f0      	LDI  R31,HIGH(_char3*2)
00075f d43d      	RCALL SUBOPT_0x3
000760 e0a3      	LDI  R26,LOW(3)
000761 db24      	RCALL _define_char
                 ; 0000 036C     define_char(char4,4);
000762 e3ee      	LDI  R30,LOW(_char4*2)
000763 e0f0      	LDI  R31,HIGH(_char4*2)
000764 d438      	RCALL SUBOPT_0x3
000765 e0a4      	LDI  R26,LOW(4)
000766 db1f      	RCALL _define_char
                 ; 0000 036D     define_char(char5,5);
000767 e4e6      	LDI  R30,LOW(_char5*2)
000768 e0f0      	LDI  R31,HIGH(_char5*2)
000769 d433      	RCALL SUBOPT_0x3
00076a e0a5      	LDI  R26,LOW(5)
00076b db1a      	RCALL _define_char
                 ; 0000 036E     define_char(char6,6);
00076c e4ee      	LDI  R30,LOW(_char6*2)
00076d e0f0      	LDI  R31,HIGH(_char6*2)
00076e d42e      	RCALL SUBOPT_0x3
00076f e0a6      	LDI  R26,LOW(6)
000770 db15      	RCALL _define_char
                 ; 0000 036F     define_char(char7,7);
000771 e5e6      	LDI  R30,LOW(_char7*2)
000772 e0f0      	LDI  R31,HIGH(_char7*2)
000773 d429      	RCALL SUBOPT_0x3
000774 e0a7      	LDI  R26,LOW(7)
000775 db10      	RCALL _define_char
                 ; 0000 0370     define_char(char8,8);
000776 e5ee      	LDI  R30,LOW(_char8*2)
000777 e0f0      	LDI  R31,HIGH(_char8*2)
000778 d424      	RCALL SUBOPT_0x3
000779 e0a8      	LDI  R26,LOW(8)
00077a db0b      	RCALL _define_char
                 ; 0000 0371     controlbyte=rtc_read(0x08);
00077b d418      	RCALL SUBOPT_0x0
00077c 2f1e      	MOV  R17,R30
                 ; 0000 0372 
                 ; 0000 0373 while(1)
                 _0x169:
                 ; 0000 0374  {
                 ; 0000 0375 
                 ; 0000 0376     while(resett){
                 _0x16C:
00077d fe20      	SBRS R2,0
00077e c034      	RJMP _0x16E
                 ; 0000 0377         if(sec==30 || sec==0)
00077f e1ee      	LDI  R30,LOW(30)
000780 15ec      	CP   R30,R12
000781 f019      	BREQ _0x170
000782 e0e0      	LDI  R30,LOW(0)
000783 15ec      	CP   R30,R12
000784 f411      	BRNE _0x16F
                 _0x170:
                 ; 0000 0378             resett=0;
000785 94e8      	CLT
000786 f820      	BLD  R2,0
                 ; 0000 0379         rtc_get_time(&hour,&miin,&sec);
                 _0x16F:
000787 d482      	RCALL SUBOPT_0x22
                 ; 0000 037A         if((controlbyte & 0x01)==0){
000788 fd10      	SBRC R17,0
000789 c008      	RJMP _0x172
                 ; 0000 037B             if(hour>12){
00078a e0ec      	LDI  R30,LOW(12)
00078b 15e8      	CP   R30,R8
00078c f420      	BRSH _0x173
                 ; 0000 037C                 pmam=1;
00078d 9468      	SET
00078e f8f0      	BLD  R15,0
                 ; 0000 037D                 hour-=12;
00078f 1a8e      	SUB  R8,R30
                 ; 0000 037E             }else{
000790 c001      	RJMP _0x174
                 _0x173:
                 ; 0000 037F                 pmam=0;
000791 d475      	RCALL SUBOPT_0x21
                 ; 0000 0380             }
                 _0x174:
                 ; 0000 0381         }
                 ; 0000 0382         sprintf(strr,"%02u:%02u:%02d",hour,miin,sec);
                 _0x172:
000792 e3eb      	LDI  R30,LOW(_strr)
000793 e0f3      	LDI  R31,HIGH(_strr)
000794 d408      	RCALL SUBOPT_0x3
                +
000795 e6e8     +LDI R30 , LOW ( 2 * _0x0 + ( 618 ) )
000796 e0f3     +LDI R31 , HIGH ( 2 * _0x0 + ( 618 ) )
                 	__POINTW1FN _0x0,618
000797 d435      	RCALL SUBOPT_0xF
000798 d437      	RCALL SUBOPT_0x10
000799 d438      	RCALL SUBOPT_0x11
00079a d439      	RCALL SUBOPT_0x12
                 ; 0000 0383         lcd_gotoxy(0,0);
00079b d44f      	RCALL SUBOPT_0x1A
                 ; 0000 0384         lcd_puts(strr);
00079c e3ab      	LDI  R26,LOW(_strr)
00079d e0b3      	LDI  R27,HIGH(_strr)
00079e d1d2      	RCALL _lcd_puts
                 ; 0000 0385         if(pmam && (controlbyte & 0x01)==0 )
00079f fef0      	SBRS R15,0
0007a0 c002      	RJMP _0x176
0007a1 ff10      	SBRS R17,0
0007a2 c001      	RJMP _0x177
                 _0x176:
0007a3 c003      	RJMP _0x175
                 _0x177:
                 ; 0000 0386             lcd_puts(" PM");
                +
0007a4 e2ad     +LDI R26 , LOW ( _0x178 + ( 0 ) )
0007a5 e0b3     +LDI R27 , HIGH ( _0x178 + ( 0 ) )
                 	__POINTW2MN _0x178,0
0007a6 d1ca      	RCALL _lcd_puts
                 ; 0000 0387         if(!pmam && (controlbyte & 0x01)==0 )
                 _0x175:
0007a7 fcf0      	SBRC R15,0
0007a8 c002      	RJMP _0x17A
0007a9 ff10      	SBRS R17,0
0007aa c001      	RJMP _0x17B
                 _0x17A:
0007ab c003      	RJMP _0x179
                 _0x17B:
                 ; 0000 0388             lcd_puts(" AM");
                +
0007ac e3a1     +LDI R26 , LOW ( _0x178 + ( 4 ) )
0007ad e0b3     +LDI R27 , HIGH ( _0x178 + ( 4 ) )
                 	__POINTW2MN _0x178,4
0007ae d1c2      	RCALL _lcd_puts
                 ; 0000 0389 
                 ; 0000 038A         delay_ms(900);
                 _0x179:
0007af e8a4      	LDI  R26,LOW(900)
0007b0 e0b3      	LDI  R27,HIGH(900)
0007b1 d5f9      	RCALL _delay_ms
                 ; 0000 038B     }
0007b2 cfca      	RJMP _0x16C
                 _0x16E:
                 ; 0000 038C     resett=1;
0007b3 9468      	SET
0007b4 f820      	BLD  R2,0
                 ; 0000 038D     lcd_clear();
0007b5 d18f      	RCALL _lcd_clear
                 ; 0000 038E     controlbyte=rtc_read(0x08);
0007b6 d3dd      	RCALL SUBOPT_0x0
0007b7 2f1e      	MOV  R17,R30
                 ; 0000 038F     rtc_get_date (&week_day,&day,&month,&year);
0007b8 d471      	RCALL SUBOPT_0x2A
                 ; 0000 0390     year%=100;
0007b9 2da9      	MOV  R26,R9
0007ba 27bb      	CLR  R27
0007bb e6e4      	LDI  R30,LOW(100)
0007bc e0f0      	LDI  R31,HIGH(100)
0007bd d7e3      	RCALL __MODW21
0007be 2e9e      	MOV  R9,R30
                 ; 0000 0391     if(controlbyte & 0x02){
0007bf ff11      	SBRS R17,1
0007c0 c012      	RJMP _0x17C
                 ; 0000 0392 		miladitoshamsi(day,month,year);
0007c1 927a      	ST   -Y,R7
0007c2 926a      	ST   -Y,R6
0007c3 2da9      	MOV  R26,R9
0007c4 df00      	RCALL _miladitoshamsi
                 ; 0000 0393         sal%=100;
0007c5 01d5      	MOVW R26,R10
0007c6 e6e4      	LDI  R30,LOW(100)
0007c7 e0f0      	LDI  R31,HIGH(100)
0007c8 d7d8      	RCALL __MODW21
0007c9 015f      	MOVW R10,R30
                 ; 0000 0394         sprintf(str_date,"%02u/%02u/%02d ",sal,mah,rooz);
0007ca d4e3      	RCALL SUBOPT_0x43
0007cb d3d1      	RCALL SUBOPT_0x3
0007cc 01f5      	MOVW R30,R10
0007cd d7b6      	RCALL __CWD1
0007ce d7fc      	RCALL __PUTPARD1
0007cf 2de5      	MOV  R30,R5
0007d0 d3d2      	RCALL SUBOPT_0x5
0007d1 2de4      	MOV  R30,R4
0007d2 c004      	RJMP _0x188
                 ; 0000 0395     }else{
                 _0x17C:
                 ; 0000 0396         sprintf(str_date,"%02u/%02u/%02d ",year,month,day);
0007d3 d4da      	RCALL SUBOPT_0x43
0007d4 d403      	RCALL SUBOPT_0x13
0007d5 d405      	RCALL SUBOPT_0x14
0007d6 2de7      	MOV  R30,R7
                 _0x188:
0007d7 27ff      	CLR  R31
0007d8 2766      	CLR  R22
0007d9 2777      	CLR  R23
0007da d7f0      	RCALL __PUTPARD1
0007db d3f8      	RCALL SUBOPT_0x12
                 ; 0000 0397     }
                 ; 0000 0398     lcd_gotoxy(0,1);
0007dc d4ca      	RCALL SUBOPT_0x41
0007dd e0a1      	LDI  R26,LOW(1)
0007de d156      	RCALL _lcd_gotoxy
                 ; 0000 0399     lcd_puts(str_date);
0007df 01de      	MOVW R26,R28
0007e0 9618      	ADIW R26,8
0007e1 d18f      	RCALL _lcd_puts
                 ; 0000 039A     weekdayshow();
0007e2 dabb      	RCALL _weekdayshow
                 ; 0000 039B 
                 ; 0000 039C     if(dht22(&temp,&humi))
0007e3 01fe      	MOVW R30,R28
0007e4 9634      	ADIW R30,4
0007e5 d3b7      	RCALL SUBOPT_0x3
0007e6 01de      	MOVW R26,R28
0007e7 9612      	ADIW R26,2
0007e8 ddfa      	RCALL _dht22
0007e9 30e0      	CPI  R30,0
0007ea f119      	BREQ _0x17E
                 ; 0000 039D     {
                 ; 0000 039E         ftoa(temp,1,temperature);
                +
0007eb 81ec     +LDD R30 , Y + 4
0007ec 81fd     +LDD R31 , Y + 4 + 1
0007ed 816e     +LDD R22 , Y + 4 + 2
0007ee 817f     +LDD R23 , Y + 4 + 3
                 	__GETD1S 4
0007ef d7db      	RCALL __PUTPARD1
0007f0 e0e1      	LDI  R30,LOW(1)
0007f1 93ea      	ST   -Y,R30
0007f2 01de      	MOVW R26,R28
0007f3 9651      	ADIW R26,17
0007f4 d01b      	RCALL _ftoa
                 ; 0000 039F         lcd_gotoxy(14,0);
0007f5 e0ee      	LDI  R30,LOW(14)
0007f6 d430      	RCALL SUBOPT_0x29
                 ; 0000 03A0         lcd_puts("T:");
                +
0007f7 e3a5     +LDI R26 , LOW ( _0x178 + ( 8 ) )
0007f8 e0b3     +LDI R27 , HIGH ( _0x178 + ( 8 ) )
                 	__POINTW2MN _0x178,8
0007f9 d177      	RCALL _lcd_puts
                 ; 0000 03A1         lcd_puts(temperature);
0007fa 01de      	MOVW R26,R28
0007fb 961c      	ADIW R26,12
0007fc d174      	RCALL _lcd_puts
                 ; 0000 03A2         ftoa(humi,1,humidity);
0007fd d4b6      	RCALL SUBOPT_0x44
0007fe d7cc      	RCALL __PUTPARD1
0007ff e0e1      	LDI  R30,LOW(1)
000800 93ea      	ST   -Y,R30
000801 01de      	MOVW R26,R28
000802 9655      	ADIW R26,21
000803 d00c      	RCALL _ftoa
                 ; 0000 03A3         lcd_gotoxy(14,1);
000804 e0ee      	LDI  R30,LOW(14)
000805 93ea      	ST   -Y,R30
000806 e0a1      	LDI  R26,LOW(1)
000807 d12d      	RCALL _lcd_gotoxy
                 ; 0000 03A4         lcd_puts("H:");
                +
000808 e3a8     +LDI R26 , LOW ( _0x178 + ( 11 ) )
000809 e0b3     +LDI R27 , HIGH ( _0x178 + ( 11 ) )
                 	__POINTW2MN _0x178,11
00080a d166      	RCALL _lcd_puts
                 ; 0000 03A5         lcd_puts(humidity);
00080b 01de      	MOVW R26,R28
00080c 9650      	ADIW R26,16
00080d d163      	RCALL _lcd_puts
                 ; 0000 03A6     }/*
                 ; 0000 03A7     else
                 ; 0000 03A8     {
                 ; 0000 03A9         lcd_clear();
                 ; 0000 03AA         lcd_gotoxy(0,0);
                 ; 0000 03AB         lcd_putsf("errorA");
                 ; 0000 03AC         delay_ms(1000);
                 ; 0000 03AD     } */
                 ; 0000 03AE  }
                 _0x17E:
00080e cf6e      	RJMP _0x169
                 ; 0000 03AF }
                 _0x17F:
00080f cfff      	RJMP _0x17F
                 
                 	.DSEG
                 _0x178:
00032d           	.BYTE 0xE
                 
                 	.CSEG
                 _ftoa:
000810 d43b      	RCALL SUBOPT_0x30
000811 9724      	SBIW R28,4
000812 e0e0      	LDI  R30,LOW(0)
000813 83e8      	ST   Y,R30
000814 83e9      	STD  Y+1,R30
000815 83ea      	STD  Y+2,R30
000816 e3ef      	LDI  R30,LOW(63)
000817 83eb      	STD  Y+3,R30
000818 d7cd      	RCALL __SAVELOCR2
000819 85eb      	LDD  R30,Y+11
00081a 85fc      	LDD  R31,Y+11+1
00081b 3fef      	CPI  R30,LOW(0xFFFF)
00081c efaf      	LDI  R26,HIGH(0xFFFF)
00081d 07fa      	CPC  R31,R26
00081e f429      	BRNE _0x200000D
00081f d496      	RCALL SUBOPT_0x45
                +
000820 e9a8     +LDI R26 , LOW ( 2 * _0x2000000 + ( 0 ) )
000821 e0b3     +LDI R27 , HIGH ( 2 * _0x2000000 + ( 0 ) )
                 	__POINTW2FN _0x2000000,0
000822 d337      	RCALL _strcpyf
000823 c07a      	RJMP _0x2100009
                 _0x200000D:
000824 3fef      	CPI  R30,LOW(0x7FFF)
000825 e7af      	LDI  R26,HIGH(0x7FFF)
000826 07fa      	CPC  R31,R26
000827 f429      	BRNE _0x200000C
000828 d48d      	RCALL SUBOPT_0x45
                +
000829 e9a9     +LDI R26 , LOW ( 2 * _0x2000000 + ( 1 ) )
00082a e0b3     +LDI R27 , HIGH ( 2 * _0x2000000 + ( 1 ) )
                 	__POINTW2FN _0x2000000,1
00082b d32e      	RCALL _strcpyf
00082c c071      	RJMP _0x2100009
                 _0x200000C:
00082d 85ac      	LDD  R26,Y+12
00082e 23aa      	TST  R26
00082f f432      	BRPL _0x200000F
000830 d488      	RCALL SUBOPT_0x46
000831 d583      	RCALL __ANEGF1
000832 d48b      	RCALL SUBOPT_0x47
000833 d48f      	RCALL SUBOPT_0x48
000834 e2ed      	LDI  R30,LOW(45)
000835 93ec      	ST   X,R30
                 _0x200000F:
000836 85a8      	LDD  R26,Y+8
000837 30a7      	CPI  R26,LOW(0x7)
000838 f010      	BRLO _0x2000010
000839 e0e6      	LDI  R30,LOW(6)
00083a 87e8      	STD  Y+8,R30
                 _0x2000010:
00083b 8518      	LDD  R17,Y+8
                 _0x2000011:
00083c 2fe1      	MOV  R30,R17
00083d 5011      	SUBI R17,1
00083e 30e0      	CPI  R30,0
00083f f021      	BREQ _0x2000013
000840 d489      	RCALL SUBOPT_0x49
000841 d48d      	RCALL SUBOPT_0x4A
000842 d492      	RCALL SUBOPT_0x4B
000843 cff8      	RJMP _0x2000011
                 _0x2000013:
000844 d495      	RCALL SUBOPT_0x4C
000845 d615      	RCALL __ADDF12
000846 d477      	RCALL SUBOPT_0x47
000847 e010      	LDI  R17,LOW(0)
                +
000848 e0e0     +LDI R30 , LOW ( 0x3F800000 )
000849 e0f0     +LDI R31 , HIGH ( 0x3F800000 )
00084a e860     +LDI R22 , BYTE3 ( 0x3F800000 )
00084b e37f     +LDI R23 , BYTE4 ( 0x3F800000 )
                 	__GETD1N 0x3F800000
00084c d488      	RCALL SUBOPT_0x4B
                 _0x2000014:
00084d d48c      	RCALL SUBOPT_0x4C
00084e d6ef      	RCALL __CMPF12
00084f f060      	BRLO _0x2000016
000850 d479      	RCALL SUBOPT_0x49
000851 d491      	RCALL SUBOPT_0x4D
000852 d482      	RCALL SUBOPT_0x4B
000853 5f1f      	SUBI R17,-LOW(1)
000854 3217      	CPI  R17,39
000855 f028      	BRLO _0x2000017
000856 d45f      	RCALL SUBOPT_0x45
                +
000857 e9ad     +LDI R26 , LOW ( 2 * _0x2000000 + ( 5 ) )
000858 e0b3     +LDI R27 , HIGH ( 2 * _0x2000000 + ( 5 ) )
                 	__POINTW2FN _0x2000000,5
000859 d300      	RCALL _strcpyf
00085a c043      	RJMP _0x2100009
                 _0x2000017:
00085b cff1      	RJMP _0x2000014
                 _0x2000016:
00085c 3010      	CPI  R17,0
00085d f421      	BRNE _0x2000018
00085e d464      	RCALL SUBOPT_0x48
00085f e3e0      	LDI  R30,LOW(48)
000860 93ec      	ST   X,R30
000861 c01e      	RJMP _0x2000019
                 _0x2000018:
                 _0x200001A:
000862 2fe1      	MOV  R30,R17
000863 5011      	SUBI R17,1
000864 30e0      	CPI  R30,0
000865 f0d1      	BREQ _0x200001C
000866 d463      	RCALL SUBOPT_0x49
000867 d467      	RCALL SUBOPT_0x4A
                +
000868 e0a0     +LDI R26 , LOW ( 0x3F000000 )
000869 e0b0     +LDI R27 , HIGH ( 0x3F000000 )
00086a e080     +LDI R24 , BYTE3 ( 0x3F000000 )
00086b e39f     +LDI R25 , BYTE4 ( 0x3F000000 )
                 	__GETD2N 0x3F000000
00086c d5ee      	RCALL __ADDF12
00086d 01df      	MOVW R26,R30
00086e 01cb      	MOVW R24,R22
00086f d2da      	RCALL _floor
000870 d464      	RCALL SUBOPT_0x4B
000871 d468      	RCALL SUBOPT_0x4C
000872 d686      	RCALL __DIVF21
000873 d574      	RCALL __CFD1U
000874 2f0e      	MOV  R16,R30
000875 d44d      	RCALL SUBOPT_0x48
000876 d472      	RCALL SUBOPT_0x4E
000877 d452      	RCALL SUBOPT_0x49
000878 d70b      	RCALL __CWD1
000879 d5a7      	RCALL __CDF1
00087a d630      	RCALL __MULF12
00087b d472      	RCALL SUBOPT_0x4F
00087c d758      	RCALL __SWAPD12
00087d d5d6      	RCALL __SUBF12
00087e d43f      	RCALL SUBOPT_0x47
00087f cfe2      	RJMP _0x200001A
                 _0x200001C:
                 _0x2000019:
000880 85e8      	LDD  R30,Y+8
000881 30e0      	CPI  R30,0
000882 f0b9      	BREQ _0x2100008
000883 d43f      	RCALL SUBOPT_0x48
000884 e2ee      	LDI  R30,LOW(46)
000885 93ec      	ST   X,R30
                 _0x200001E:
000886 85e8      	LDD  R30,Y+8
000887 50e1      	SUBI R30,LOW(1)
000888 87e8      	STD  Y+8,R30
000889 5fef      	SUBI R30,-LOW(1)
00088a f079      	BREQ _0x2000020
00088b d462      	RCALL SUBOPT_0x4F
00088c d456      	RCALL SUBOPT_0x4D
00088d d430      	RCALL SUBOPT_0x47
00088e d42a      	RCALL SUBOPT_0x46
00088f d558      	RCALL __CFD1U
000890 2f0e      	MOV  R16,R30
000891 d431      	RCALL SUBOPT_0x48
000892 d456      	RCALL SUBOPT_0x4E
000893 d45a      	RCALL SUBOPT_0x4F
000894 d6ef      	RCALL __CWD1
000895 d58b      	RCALL __CDF1
000896 d73e      	RCALL __SWAPD12
000897 d5bc      	RCALL __SUBF12
000898 d425      	RCALL SUBOPT_0x47
000899 cfec      	RJMP _0x200001E
                 _0x2000020:
                 _0x2100008:
00089a 81ae      	LDD  R26,Y+6
00089b 81bf      	LDD  R27,Y+6+1
00089c e0e0      	LDI  R30,LOW(0)
00089d 93ec      	ST   X,R30
                 _0x2100009:
00089e d74e      	RCALL __LOADLOCR2
00089f 962d      	ADIW R28,13
0008a0 9508      	RET
                 
                 	.DSEG
                 
                 	.CSEG
                 
                 	.CSEG
                 _rtc_read:
0008a1 93aa      	ST   -Y,R26
0008a2 931a      	ST   -Y,R17
0008a3 d44f      	RCALL SUBOPT_0x50
0008a4 d453      	RCALL SUBOPT_0x51
0008a5 e0a0      	LDI  R26,LOW(0)
0008a6 d4d1      	RCALL _i2c_read
0008a7 2f1e      	MOV  R17,R30
0008a8 d4c5      	RCALL _i2c_stop
0008a9 2fe1      	MOV  R30,R17
0008aa 8118      	LDD  R17,Y+0
0008ab c097      	RJMP _0x2100007
                 _rtc_write:
0008ac 93aa      	ST   -Y,R26
0008ad d445      	RCALL SUBOPT_0x50
0008ae 81a8      	LD   R26,Y
0008af d44c      	RCALL SUBOPT_0x52
0008b0 c092      	RJMP _0x2100007
                 _rtc_init:
0008b1 93aa      	ST   -Y,R26
0008b2 81ea      	LDD  R30,Y+2
0008b3 70e3      	ANDI R30,LOW(0x3)
0008b4 83ea      	STD  Y+2,R30
0008b5 81e9      	LDD  R30,Y+1
0008b6 30e0      	CPI  R30,0
0008b7 f019      	BREQ _0x2020003
0008b8 81ea      	LDD  R30,Y+2
0008b9 61e0      	ORI  R30,0x10
0008ba 83ea      	STD  Y+2,R30
                 _0x2020003:
0008bb 81e8      	LD   R30,Y
0008bc 30e0      	CPI  R30,0
0008bd f019      	BREQ _0x2020004
0008be 81ea      	LDD  R30,Y+2
0008bf 68e0      	ORI  R30,0x80
0008c0 83ea      	STD  Y+2,R30
                 _0x2020004:
0008c1 d43c      	RCALL SUBOPT_0x53
0008c2 e0a7      	LDI  R26,LOW(7)
0008c3 d4cf      	RCALL _i2c_write
0008c4 81aa      	LDD  R26,Y+2
0008c5 d436      	RCALL SUBOPT_0x52
0008c6 c0b8      	RJMP _0x2100006
                 _rtc_get_time:
0008c7 d384      	RCALL SUBOPT_0x30
0008c8 d435      	RCALL SUBOPT_0x53
0008c9 e0a0      	LDI  R26,LOW(0)
0008ca d4c8      	RCALL _i2c_write
0008cb d42c      	RCALL SUBOPT_0x51
0008cc d434      	RCALL SUBOPT_0x54
0008cd 81a8      	LD   R26,Y
0008ce 81b9      	LDD  R27,Y+1
0008cf 93ec      	ST   X,R30
0008d0 d430      	RCALL SUBOPT_0x54
0008d1 d433      	RCALL SUBOPT_0x55
0008d2 81ac      	LDD  R26,Y+4
0008d3 81bd      	LDD  R27,Y+4+1
0008d4 93ec      	ST   X,R30
0008d5 d498      	RCALL _i2c_stop
0008d6 9626      	ADIW R28,6
0008d7 9508      	RET
                 _rtc_set_time:
0008d8 93aa      	ST   -Y,R26
0008d9 d424      	RCALL SUBOPT_0x53
0008da e0a0      	LDI  R26,LOW(0)
0008db d430      	RCALL SUBOPT_0x56
0008dc d434      	RCALL SUBOPT_0x57
0008dd d438      	RCALL SUBOPT_0x58
0008de d41d      	RCALL SUBOPT_0x52
0008df c09f      	RJMP _0x2100006
                 _rtc_get_date:
0008e0 d36b      	RCALL SUBOPT_0x30
0008e1 d41c      	RCALL SUBOPT_0x53
0008e2 e0a3      	LDI  R26,LOW(3)
0008e3 d4af      	RCALL _i2c_write
0008e4 d413      	RCALL SUBOPT_0x51
0008e5 e0a1      	LDI  R26,LOW(1)
0008e6 d491      	RCALL _i2c_read
0008e7 d433      	RCALL SUBOPT_0x59
0008e8 93ec      	ST   X,R30
0008e9 d417      	RCALL SUBOPT_0x54
0008ea 81ac      	LDD  R26,Y+4
0008eb 81bd      	LDD  R27,Y+4+1
0008ec 93ec      	ST   X,R30
0008ed d413      	RCALL SUBOPT_0x54
0008ee d416      	RCALL SUBOPT_0x55
0008ef 81a8      	LD   R26,Y
0008f0 81b9      	LDD  R27,Y+1
0008f1 93ec      	ST   X,R30
0008f2 d47b      	RCALL _i2c_stop
0008f3 9628      	ADIW R28,8
0008f4 9508      	RET
                 _rtc_set_date:
0008f5 93aa      	ST   -Y,R26
0008f6 d407      	RCALL SUBOPT_0x53
0008f7 e0a3      	LDI  R26,LOW(3)
0008f8 d49a      	RCALL _i2c_write
0008f9 81ab      	LDD  R26,Y+3
0008fa d41b      	RCALL SUBOPT_0x58
0008fb d415      	RCALL SUBOPT_0x57
0008fc d40f      	RCALL SUBOPT_0x56
0008fd d3fe      	RCALL SUBOPT_0x52
0008fe c259      	RJMP _0x2100001
                 	#ifndef __SLEEP_DEFINED__
                 	#endif
                 
                 	.DSEG
                 
                 	.CSEG
                 __lcd_write_nibble_G102:
0008ff 93aa      	ST   -Y,R26
000900 81e8      	LD   R30,Y
000901 71e0      	ANDI R30,LOW(0x10)
000902 f011      	BREQ _0x2040004
000903 9ac1      	SBI  0x18,1
000904 c001      	RJMP _0x2040005
                 _0x2040004:
000905 98c1      	CBI  0x18,1
                 _0x2040005:
000906 81e8      	LD   R30,Y
000907 72e0      	ANDI R30,LOW(0x20)
000908 f011      	BREQ _0x2040006
000909 9ac2      	SBI  0x18,2
00090a c001      	RJMP _0x2040007
                 _0x2040006:
00090b 98c2      	CBI  0x18,2
                 _0x2040007:
00090c 81e8      	LD   R30,Y
00090d 74e0      	ANDI R30,LOW(0x40)
00090e f011      	BREQ _0x2040008
00090f 9ac3      	SBI  0x18,3
000910 c001      	RJMP _0x2040009
                 _0x2040008:
000911 98c3      	CBI  0x18,3
                 _0x2040009:
000912 81e8      	LD   R30,Y
000913 78e0      	ANDI R30,LOW(0x80)
000914 f011      	BREQ _0x204000A
000915 9ac4      	SBI  0x18,4
000916 c001      	RJMP _0x204000B
                 _0x204000A:
000917 98c4      	CBI  0x18,4
                 _0x204000B:
                +
000918 e085     +LDI R24 , LOW ( 5 )
                +__DELAY_USB_LOOP :
000919 958a     +DEC R24
00091a f7f1     +BRNE __DELAY_USB_LOOP
                 	__DELAY_USB 5
00091b 9ac5      	SBI  0x18,5
                +
00091c e08d     +LDI R24 , LOW ( 13 )
                +__DELAY_USB_LOOP :
00091d 958a     +DEC R24
00091e f7f1     +BRNE __DELAY_USB_LOOP
                 	__DELAY_USB 13
00091f 98c5      	CBI  0x18,5
                +
000920 e08d     +LDI R24 , LOW ( 13 )
                +__DELAY_USB_LOOP :
000921 958a     +DEC R24
000922 f7f1     +BRNE __DELAY_USB_LOOP
                 	__DELAY_USB 13
000923 c086      	RJMP _0x2100005
                 __lcd_write_data:
000924 93aa      	ST   -Y,R26
000925 81a8      	LD   R26,Y
000926 dfd8      	RCALL __lcd_write_nibble_G102
000927 81e8          ld    r30,y
000928 95e2          swap  r30
000929 83e8          st    y,r30
00092a 81a8      	LD   R26,Y
00092b dfd3      	RCALL __lcd_write_nibble_G102
                +
00092c e885     +LDI R24 , LOW ( 133 )
                +__DELAY_USB_LOOP :
00092d 958a     +DEC R24
00092e f7f1     +BRNE __DELAY_USB_LOOP
                 	__DELAY_USB 133
00092f c07a      	RJMP _0x2100005
                 _lcd_write_byte:
000930 93aa      	ST   -Y,R26
000931 81a9      	LDD  R26,Y+1
000932 dff1      	RCALL __lcd_write_data
000933 d3ea      	RCALL SUBOPT_0x5A
000934 c00e      	RJMP _0x2100007
                 _lcd_gotoxy:
000935 93aa      	ST   -Y,R26
000936 d2a8      	RCALL SUBOPT_0x16
000937 5ae4      	SUBI R30,LOW(-__base_y_G102)
000938 4ffc      	SBCI R31,HIGH(-__base_y_G102)
000939 81e0      	LD   R30,Z
00093a 81a9      	LDD  R26,Y+1
00093b 0fae      	ADD  R26,R30
00093c dfe7      	RCALL __lcd_write_data
00093d 81e9      	LDD  R30,Y+1
00093e 93e0 0360 	STS  __lcd_x,R30
000940 81e8      	LD   R30,Y
000941 93e0 0361 	STS  __lcd_y,R30
                 _0x2100007:
000943 9622      	ADIW R28,2
000944 9508      	RET
                 _lcd_clear:
000945 e0a2      	LDI  R26,LOW(2)
000946 dfdd      	RCALL __lcd_write_data
000947 e0a3      	LDI  R26,LOW(3)
000948 d2a0      	RCALL SUBOPT_0x19
000949 e0ac      	LDI  R26,LOW(12)
00094a dfd9      	RCALL __lcd_write_data
00094b e0a1      	LDI  R26,LOW(1)
00094c dfd7      	RCALL __lcd_write_data
00094d e0a3      	LDI  R26,LOW(3)
00094e d29a      	RCALL SUBOPT_0x19
00094f e0e0      	LDI  R30,LOW(0)
000950 93e0 0361 	STS  __lcd_y,R30
000952 93e0 0360 	STS  __lcd_x,R30
000954 9508      	RET
                 _lcd_putchar:
000955 93aa      	ST   -Y,R26
000956 81a8      	LD   R26,Y
000957 30aa      	CPI  R26,LOW(0xA)
000958 f031      	BREQ _0x2040011
000959 91e0 0362 	LDS  R30,__lcd_maxx
00095b 91a0 0360 	LDS  R26,__lcd_x
00095d 17ae      	CP   R26,R30
00095e f058      	BRLO _0x2040010
                 _0x2040011:
00095f d347      	RCALL SUBOPT_0x41
000960 91a0 0361 	LDS  R26,__lcd_y
000962 5faf      	SUBI R26,-LOW(1)
000963 93a0 0361 	STS  __lcd_y,R26
000965 dfcf      	RCALL _lcd_gotoxy
000966 81a8      	LD   R26,Y
000967 30aa      	CPI  R26,LOW(0xA)
000968 f409      	BRNE _0x2040013
000969 c040      	RJMP _0x2100005
                 _0x2040013:
                 _0x2040010:
00096a 91e0 0360 	LDS  R30,__lcd_x
00096c 5fef      	SUBI R30,-LOW(1)
00096d 93e0 0360 	STS  __lcd_x,R30
00096f d3ae      	RCALL SUBOPT_0x5A
000970 c039      	RJMP _0x2100005
                 _lcd_puts:
000971 d2da      	RCALL SUBOPT_0x30
000972 931a      	ST   -Y,R17
                 _0x2040014:
000973 81a9      	LDD  R26,Y+1
000974 81ba      	LDD  R27,Y+1+1
000975 91ed      	LD   R30,X+
000976 83a9      	STD  Y+1,R26
000977 83ba      	STD  Y+1+1,R27
000978 2f1e      	MOV  R17,R30
000979 30e0      	CPI  R30,0
00097a f019      	BREQ _0x2040016
00097b 2fa1      	MOV  R26,R17
00097c dfd8      	RCALL _lcd_putchar
00097d cff5      	RJMP _0x2040014
                 _0x2040016:
00097e 8118      	LDD  R17,Y+0
                 _0x2100006:
00097f 9623      	ADIW R28,3
000980 9508      	RET
                 _lcd_init:
000981 93aa      	ST   -Y,R26
000982 9ab9      	SBI  0x17,1
000983 9aba      	SBI  0x17,2
000984 9abb      	SBI  0x17,3
000985 9abc      	SBI  0x17,4
000986 9abd      	SBI  0x17,5
000987 9abf      	SBI  0x17,7
000988 9abe      	SBI  0x17,6
000989 98c5      	CBI  0x18,5
00098a 98c7      	CBI  0x18,7
00098b 98c6      	CBI  0x18,6
00098c 81e8      	LD   R30,Y
00098d 93e0 0362 	STS  __lcd_maxx,R30
00098f 58e0      	SUBI R30,-LOW(128)
                +
000990 93e0 035e+STS __base_y_G102 + ( 2 ) , R30
                 	__PUTB1MN __base_y_G102,2
000992 81e8      	LD   R30,Y
000993 54e0      	SUBI R30,-LOW(192)
                +
000994 93e0 035f+STS __base_y_G102 + ( 3 ) , R30
                 	__PUTB1MN __base_y_G102,3
000996 e1a4      	LDI  R26,LOW(20)
000997 d251      	RCALL SUBOPT_0x19
000998 d38a      	RCALL SUBOPT_0x5B
000999 d389      	RCALL SUBOPT_0x5B
00099a d388      	RCALL SUBOPT_0x5B
00099b e2a0      	LDI  R26,LOW(32)
00099c df62      	RCALL __lcd_write_nibble_G102
                +
00099d ec88     +LDI R24 , LOW ( 200 )
00099e e090     +LDI R25 , HIGH ( 200 )
                +__DELAY_USW_LOOP :
00099f 9701     +SBIW R24 , 1
0009a0 f7f1     +BRNE __DELAY_USW_LOOP
                 	__DELAY_USW 200
0009a1 e2a8      	LDI  R26,LOW(40)
0009a2 df81      	RCALL __lcd_write_data
0009a3 e0a4      	LDI  R26,LOW(4)
0009a4 df7f      	RCALL __lcd_write_data
0009a5 e8a5      	LDI  R26,LOW(133)
0009a6 df7d      	RCALL __lcd_write_data
0009a7 e0a6      	LDI  R26,LOW(6)
0009a8 df7b      	RCALL __lcd_write_data
0009a9 df9b      	RCALL _lcd_clear
                 _0x2100005:
0009aa 9621      	ADIW R28,1
0009ab 9508      	RET
                 	#ifndef __SLEEP_DEFINED__
                 	#endif
                 
                 	.CSEG
                 _put_buff_G103:
0009ac d29f      	RCALL SUBOPT_0x30
0009ad d638      	RCALL __SAVELOCR2
0009ae d37b      	RCALL SUBOPT_0x5C
0009af 9612      	ADIW R26,2
0009b0 d5fe      	RCALL __GETW1P
0009b1 9730      	SBIW R30,0
0009b2 f0f1      	BREQ _0x2060010
0009b3 d376      	RCALL SUBOPT_0x5C
0009b4 d378      	RCALL SUBOPT_0x5D
0009b5 018f      	MOVW R16,R30
0009b6 9730      	SBIW R30,0
0009b7 f061      	BREQ _0x2060012
                +
0009b8 3002     +CPI R16 , LOW ( 2 )
0009b9 e0e0     +LDI R30 , HIGH ( 2 )
0009ba 071e     +CPC R17 , R30
                 	__CPWRN 16,17,2
0009bb f0a0      	BRLO _0x2060013
0009bc 01f8      	MOVW R30,R16
0009bd 9731      	SBIW R30,1
0009be 018f      	MOVW R16,R30
                +
0009bf 81aa     +LDD R26 , Y + 2
0009c0 81bb     +LDD R27 , Y + 2 + 1
0009c1 9614     +ADIW R26 , 4
0009c2 93ed     +ST X + , R30
0009c3 93fc     +ST X , R31
                 	__PUTW1SNS 2,4
                 _0x2060012:
0009c4 d365      	RCALL SUBOPT_0x5C
0009c5 9612      	ADIW R26,2
0009c6 d369      	RCALL SUBOPT_0x5E
0009c7 9731      	SBIW R30,1
0009c8 81ac      	LDD  R26,Y+4
0009c9 83a0      	STD  Z+0,R26
0009ca d35f      	RCALL SUBOPT_0x5C
0009cb d5e3      	RCALL __GETW1P
0009cc 23ff      	TST  R31
0009cd f012      	BRMI _0x2060014
0009ce d35b      	RCALL SUBOPT_0x5C
0009cf d360      	RCALL SUBOPT_0x5E
                 _0x2060014:
                 _0x2060013:
0009d0 c005      	RJMP _0x2060015
                 _0x2060010:
0009d1 d358      	RCALL SUBOPT_0x5C
0009d2 efef      	LDI  R30,LOW(65535)
0009d3 efff      	LDI  R31,HIGH(65535)
0009d4 93ed      	ST   X+,R30
0009d5 93fc      	ST   X,R31
                 _0x2060015:
                 _0x2100004:
0009d6 d616      	RCALL __LOADLOCR2
                 _0x2100003:
0009d7 9625      	ADIW R28,5
0009d8 9508      	RET
                 __print_G103:
0009d9 d272      	RCALL SUBOPT_0x30
0009da 9726      	SBIW R28,6
0009db d606      	RCALL __SAVELOCR6
0009dc e010      	LDI  R17,0
0009dd 85ac      	LDD  R26,Y+12
0009de 85bd      	LDD  R27,Y+12+1
0009df d27c      	RCALL SUBOPT_0x34
                 _0x2060016:
0009e0 89ea      	LDD  R30,Y+18
0009e1 89fb      	LDD  R31,Y+18+1
0009e2 9631      	ADIW R30,1
0009e3 8bea      	STD  Y+18,R30
0009e4 8bfb      	STD  Y+18+1,R31
0009e5 9731      	SBIW R30,1
0009e6 91e4      	LPM  R30,Z
0009e7 2f2e      	MOV  R18,R30
0009e8 30e0      	CPI  R30,0
0009e9 f409      	BRNE PC+2
0009ea c100      	RJMP _0x2060018
0009eb 2fe1      	MOV  R30,R17
0009ec 30e0      	CPI  R30,0
0009ed f431      	BRNE _0x206001C
0009ee 3225      	CPI  R18,37
0009ef f411      	BRNE _0x206001D
0009f0 e011      	LDI  R17,LOW(1)
0009f1 c001      	RJMP _0x206001E
                 _0x206001D:
0009f2 d343      	RCALL SUBOPT_0x5F
                 _0x206001E:
0009f3 c0f6      	RJMP _0x206001B
                 _0x206001C:
0009f4 30e1      	CPI  R30,LOW(0x1)
0009f5 f4a1      	BRNE _0x206001F
0009f6 3225      	CPI  R18,37
0009f7 f411      	BRNE _0x2060020
0009f8 d33d      	RCALL SUBOPT_0x5F
0009f9 c0ef      	RJMP _0x20600C9
                 _0x2060020:
0009fa e012      	LDI  R17,LOW(2)
0009fb e040      	LDI  R20,LOW(0)
0009fc e000      	LDI  R16,LOW(0)
0009fd 322d      	CPI  R18,45
0009fe f411      	BRNE _0x2060021
0009ff e001      	LDI  R16,LOW(1)
000a00 c0e9      	RJMP _0x206001B
                 _0x2060021:
000a01 322b      	CPI  R18,43
000a02 f411      	BRNE _0x2060022
000a03 e24b      	LDI  R20,LOW(43)
000a04 c0e5      	RJMP _0x206001B
                 _0x2060022:
000a05 3220      	CPI  R18,32
000a06 f411      	BRNE _0x2060023
000a07 e240      	LDI  R20,LOW(32)
000a08 c0e1      	RJMP _0x206001B
                 _0x2060023:
000a09 c002      	RJMP _0x2060024
                 _0x206001F:
000a0a 30e2      	CPI  R30,LOW(0x2)
000a0b f439      	BRNE _0x2060025
                 _0x2060024:
000a0c e050      	LDI  R21,LOW(0)
000a0d e013      	LDI  R17,LOW(3)
000a0e 3320      	CPI  R18,48
000a0f f411      	BRNE _0x2060026
000a10 6800      	ORI  R16,LOW(128)
000a11 c0d8      	RJMP _0x206001B
                 _0x2060026:
000a12 c003      	RJMP _0x2060027
                 _0x2060025:
000a13 30e3      	CPI  R30,LOW(0x3)
000a14 f009      	BREQ PC+2
000a15 c0d4      	RJMP _0x206001B
                 _0x2060027:
000a16 3320      	CPI  R18,48
000a17 f010      	BRLO _0x206002A
000a18 332a      	CPI  R18,58
000a19 f008      	BRLO _0x206002B
                 _0x206002A:
000a1a c007      	RJMP _0x2060029
                 _0x206002B:
000a1b e0aa      	LDI  R26,LOW(10)
000a1c 9f5a      	MUL  R21,R26
000a1d 2d50      	MOV  R21,R0
000a1e 2fe2      	MOV  R30,R18
000a1f 53e0      	SUBI R30,LOW(48)
000a20 0f5e      	ADD  R21,R30
000a21 c0c8      	RJMP _0x206001B
                 _0x2060029:
000a22 2fe2      	MOV  R30,R18
000a23 36e3      	CPI  R30,LOW(0x63)
000a24 f439      	BRNE _0x206002F
000a25 d317      	RCALL SUBOPT_0x60
000a26 d319      	RCALL SUBOPT_0x61
000a27 d315      	RCALL SUBOPT_0x60
000a28 81a4      	LDD  R26,Z+4
000a29 93aa      	ST   -Y,R26
000a2a d319      	RCALL SUBOPT_0x62
000a2b c0bd      	RJMP _0x2060030
                 _0x206002F:
000a2c 37e3      	CPI  R30,LOW(0x73)
000a2d f441      	BRNE _0x2060032
000a2e d31b      	RCALL SUBOPT_0x63
000a2f d31c      	RCALL SUBOPT_0x64
000a30 83ee      	STD  Y+6,R30
000a31 83ff      	STD  Y+6+1,R31
000a32 d2e8      	RCALL SUBOPT_0x59
000a33 d132      	RCALL _strlen
000a34 2f1e      	MOV  R17,R30
000a35 c009      	RJMP _0x2060033
                 _0x2060032:
000a36 37e0      	CPI  R30,LOW(0x70)
000a37 f459      	BRNE _0x2060035
000a38 d311      	RCALL SUBOPT_0x63
000a39 d312      	RCALL SUBOPT_0x64
000a3a d314      	RCALL SUBOPT_0x65
000a3b d2df      	RCALL SUBOPT_0x59
000a3c d134      	RCALL _strlenf
000a3d 2f1e      	MOV  R17,R30
000a3e 6008      	ORI  R16,LOW(8)
                 _0x2060033:
000a3f 6002      	ORI  R16,LOW(2)
000a40 770f      	ANDI R16,LOW(127)
000a41 e030      	LDI  R19,LOW(0)
000a42 c02e      	RJMP _0x2060036
                 _0x2060035:
000a43 36e4      	CPI  R30,LOW(0x64)
000a44 f011      	BREQ _0x2060039
000a45 36e9      	CPI  R30,LOW(0x69)
000a46 f411      	BRNE _0x206003A
                 _0x2060039:
000a47 6004      	ORI  R16,LOW(4)
000a48 c002      	RJMP _0x206003B
                 _0x206003A:
000a49 37e5      	CPI  R30,LOW(0x75)
000a4a f429      	BRNE _0x206003C
                 _0x206003B:
000a4b e6e6      	LDI  R30,LOW(_tbl10_G103*2)
000a4c e0f0      	LDI  R31,HIGH(_tbl10_G103*2)
000a4d d301      	RCALL SUBOPT_0x65
000a4e e015      	LDI  R17,LOW(5)
000a4f c00b      	RJMP _0x206003D
                 _0x206003C:
000a50 35e8      	CPI  R30,LOW(0x58)
000a51 f411      	BRNE _0x206003F
000a52 6008      	ORI  R16,LOW(8)
000a53 c003      	RJMP _0x2060040
                 _0x206003F:
000a54 37e8      	CPI  R30,LOW(0x78)
000a55 f009      	BREQ PC+2
000a56 c092      	RJMP _0x2060071
                 _0x2060040:
000a57 e7e0      	LDI  R30,LOW(_tbl16_G103*2)
000a58 e0f0      	LDI  R31,HIGH(_tbl16_G103*2)
000a59 d2f5      	RCALL SUBOPT_0x65
000a5a e014      	LDI  R17,LOW(4)
                 _0x206003D:
000a5b ff02      	SBRS R16,2
000a5c c011      	RJMP _0x2060042
000a5d d2ec      	RCALL SUBOPT_0x63
000a5e d2ed      	RCALL SUBOPT_0x64
000a5f d2f2      	RCALL SUBOPT_0x66
000a60 85ab      	LDD  R26,Y+11
000a61 23aa      	TST  R26
000a62 f42a      	BRPL _0x2060043
000a63 85ea      	LDD  R30,Y+10
000a64 85fb      	LDD  R31,Y+10+1
000a65 d4fc      	RCALL __ANEGW1
000a66 d2eb      	RCALL SUBOPT_0x66
000a67 e24d      	LDI  R20,LOW(45)
                 _0x2060043:
000a68 3040      	CPI  R20,0
000a69 f011      	BREQ _0x2060044
000a6a 5f1f      	SUBI R17,-LOW(1)
000a6b c001      	RJMP _0x2060045
                 _0x2060044:
000a6c 7f0b      	ANDI R16,LOW(251)
                 _0x2060045:
000a6d c003      	RJMP _0x2060046
                 _0x2060042:
000a6e d2db      	RCALL SUBOPT_0x63
000a6f d2dc      	RCALL SUBOPT_0x64
000a70 d2e1      	RCALL SUBOPT_0x66
                 _0x2060046:
                 _0x2060036:
000a71 fd00      	SBRC R16,0
000a72 c010      	RJMP _0x2060047
                 _0x2060048:
000a73 1715      	CP   R17,R21
000a74 f470      	BRSH _0x206004A
000a75 ff07      	SBRS R16,7
000a76 c008      	RJMP _0x206004B
000a77 ff02      	SBRS R16,2
000a78 c004      	RJMP _0x206004C
000a79 7f0b      	ANDI R16,LOW(251)
000a7a 2f24      	MOV  R18,R20
000a7b 5011      	SUBI R17,LOW(1)
000a7c c001      	RJMP _0x206004D
                 _0x206004C:
000a7d e320      	LDI  R18,LOW(48)
                 _0x206004D:
000a7e c001      	RJMP _0x206004E
                 _0x206004B:
000a7f e220      	LDI  R18,LOW(32)
                 _0x206004E:
000a80 d2b5      	RCALL SUBOPT_0x5F
000a81 5051      	SUBI R21,LOW(1)
000a82 cff0      	RJMP _0x2060048
                 _0x206004A:
                 _0x2060047:
000a83 2f31      	MOV  R19,R17
000a84 ff01      	SBRS R16,1
000a85 c014      	RJMP _0x206004F
                 _0x2060050:
000a86 3030      	CPI  R19,0
000a87 f089      	BREQ _0x2060052
000a88 ff03      	SBRS R16,3
000a89 c005      	RJMP _0x2060053
000a8a 81ee      	LDD  R30,Y+6
000a8b 81ff      	LDD  R31,Y+6+1
000a8c 9125      	LPM  R18,Z+
000a8d d2c1      	RCALL SUBOPT_0x65
000a8e c004      	RJMP _0x2060054
                 _0x2060053:
000a8f d28b      	RCALL SUBOPT_0x59
000a90 912d      	LD   R18,X+
000a91 83ae      	STD  Y+6,R26
000a92 83bf      	STD  Y+6+1,R27
                 _0x2060054:
000a93 d2a2      	RCALL SUBOPT_0x5F
000a94 3050      	CPI  R21,0
000a95 f009      	BREQ _0x2060055
000a96 5051      	SUBI R21,LOW(1)
                 _0x2060055:
000a97 5031      	SUBI R19,LOW(1)
000a98 cfed      	RJMP _0x2060050
                 _0x2060052:
000a99 c046      	RJMP _0x2060056
                 _0x206004F:
                 _0x2060058:
000a9a e320      	LDI  R18,LOW(48)
000a9b 81ee      	LDD  R30,Y+6
000a9c 81ff      	LDD  R31,Y+6+1
000a9d d51a      	RCALL __GETW1PF
000a9e 87e8      	STD  Y+8,R30
000a9f 87f9      	STD  Y+8+1,R31
000aa0 81ee      	LDD  R30,Y+6
000aa1 81ff      	LDD  R31,Y+6+1
000aa2 9632      	ADIW R30,2
000aa3 d2ab      	RCALL SUBOPT_0x65
                 _0x206005A:
000aa4 85e8      	LDD  R30,Y+8
000aa5 85f9      	LDD  R31,Y+8+1
000aa6 85aa      	LDD  R26,Y+10
000aa7 85bb      	LDD  R27,Y+10+1
000aa8 17ae      	CP   R26,R30
000aa9 07bf      	CPC  R27,R31
000aaa f048      	BRLO _0x206005C
000aab 5f2f      	SUBI R18,-LOW(1)
000aac 85a8      	LDD  R26,Y+8
000aad 85b9      	LDD  R27,Y+8+1
000aae 85ea      	LDD  R30,Y+10
000aaf 85fb      	LDD  R31,Y+10+1
000ab0 1bea      	SUB  R30,R26
000ab1 0bfb      	SBC  R31,R27
000ab2 d29f      	RCALL SUBOPT_0x66
000ab3 cff0      	RJMP _0x206005A
                 _0x206005C:
000ab4 332a      	CPI  R18,58
000ab5 f028      	BRLO _0x206005D
000ab6 ff03      	SBRS R16,3
000ab7 c002      	RJMP _0x206005E
000ab8 5f29      	SUBI R18,-LOW(7)
000ab9 c001      	RJMP _0x206005F
                 _0x206005E:
000aba 5d29      	SUBI R18,-LOW(39)
                 _0x206005F:
                 _0x206005D:
000abb fd04      	SBRC R16,4
000abc c019      	RJMP _0x2060061
000abd 3321      	CPI  R18,49
000abe f420      	BRSH _0x2060063
000abf 85a8      	LDD  R26,Y+8
000ac0 85b9      	LDD  R27,Y+8+1
000ac1 9711      	SBIW R26,1
000ac2 f409      	BRNE _0x2060062
                 _0x2060063:
000ac3 c009      	RJMP _0x20600CA
                 _0x2060062:
000ac4 1753      	CP   R21,R19
000ac5 f010      	BRLO _0x2060067
000ac6 ff00      	SBRS R16,0
000ac7 c001      	RJMP _0x2060068
                 _0x2060067:
000ac8 c011      	RJMP _0x2060066
                 _0x2060068:
000ac9 e220      	LDI  R18,LOW(32)
000aca ff07      	SBRS R16,7
000acb c00a      	RJMP _0x2060069
000acc e320      	LDI  R18,LOW(48)
                 _0x20600CA:
000acd 6100      	ORI  R16,LOW(16)
000ace ff02      	SBRS R16,2
000acf c006      	RJMP _0x206006A
000ad0 7f0b      	ANDI R16,LOW(251)
000ad1 934a      	ST   -Y,R20
000ad2 d271      	RCALL SUBOPT_0x62
000ad3 3050      	CPI  R21,0
000ad4 f009      	BREQ _0x206006B
000ad5 5051      	SUBI R21,LOW(1)
                 _0x206006B:
                 _0x206006A:
                 _0x2060069:
                 _0x2060061:
000ad6 d25f      	RCALL SUBOPT_0x5F
000ad7 3050      	CPI  R21,0
000ad8 f009      	BREQ _0x206006C
000ad9 5051      	SUBI R21,LOW(1)
                 _0x206006C:
                 _0x2060066:
000ada 5031      	SUBI R19,LOW(1)
000adb 85a8      	LDD  R26,Y+8
000adc 85b9      	LDD  R27,Y+8+1
000add 9712      	SBIW R26,2
000ade f008      	BRLO _0x2060059
000adf cfba      	RJMP _0x2060058
                 _0x2060059:
                 _0x2060056:
000ae0 ff00      	SBRS R16,0
000ae1 c007      	RJMP _0x206006D
                 _0x206006E:
000ae2 3050      	CPI  R21,0
000ae3 f029      	BREQ _0x2060070
000ae4 5051      	SUBI R21,LOW(1)
000ae5 e2e0      	LDI  R30,LOW(32)
000ae6 93ea      	ST   -Y,R30
000ae7 d25c      	RCALL SUBOPT_0x62
000ae8 cff9      	RJMP _0x206006E
                 _0x2060070:
                 _0x206006D:
                 _0x2060071:
                 _0x2060030:
                 _0x20600C9:
000ae9 e010      	LDI  R17,LOW(0)
                 _0x206001B:
000aea cef5      	RJMP _0x2060016
                 _0x2060018:
000aeb 85ac      	LDD  R26,Y+12
000aec 85bd      	LDD  R27,Y+12+1
000aed d4c1      	RCALL __GETW1P
000aee d4fa      	RCALL __LOADLOCR6
000aef 9664      	ADIW R28,20
000af0 9508      	RET
                 _sprintf:
000af1 92ff      	PUSH R15
000af2 2ef8      	MOV  R15,R24
000af3 9726      	SBIW R28,6
000af4 d4ef      	RCALL __SAVELOCR4
000af5 d25f      	RCALL SUBOPT_0x67
000af6 9730      	SBIW R30,0
000af7 f419      	BRNE _0x2060072
000af8 efef      	LDI  R30,LOW(65535)
000af9 efff      	LDI  R31,HIGH(65535)
000afa c01b      	RJMP _0x2100002
                 _0x2060072:
000afb 01de      	MOVW R26,R28
000afc 9616      	ADIW R26,6
000afd d460      	RCALL __ADDW2R15
000afe 018d      	MOVW R16,R26
000aff d255      	RCALL SUBOPT_0x67
000b00 d24e      	RCALL SUBOPT_0x65
000b01 e0e0      	LDI  R30,LOW(0)
000b02 87e8      	STD  Y+8,R30
000b03 87e9      	STD  Y+8+1,R30
000b04 01de      	MOVW R26,R28
000b05 961a      	ADIW R26,10
000b06 d457      	RCALL __ADDW2R15
000b07 d4a7      	RCALL __GETW1P
000b08 d094      	RCALL SUBOPT_0x3
000b09 931a      	ST   -Y,R17
000b0a 930a      	ST   -Y,R16
000b0b eaec      	LDI  R30,LOW(_put_buff_G103)
000b0c e0f9      	LDI  R31,HIGH(_put_buff_G103)
000b0d d08f      	RCALL SUBOPT_0x3
000b0e 01de      	MOVW R26,R28
000b0f 961a      	ADIW R26,10
000b10 dec8      	RCALL __print_G103
000b11 019f      	MOVW R18,R30
000b12 d208      	RCALL SUBOPT_0x59
000b13 e0e0      	LDI  R30,LOW(0)
000b14 93ec      	ST   X,R30
000b15 01f9      	MOVW R30,R18
                 _0x2100002:
000b16 d4d4      	RCALL __LOADLOCR4
000b17 962a      	ADIW R28,10
000b18 90ff      	POP  R15
000b19 9508      	RET
                 
                 	.CSEG
                 
                 	.CSEG
                 _ftrunc:
000b1a d4b5      	RCALL __PUTPARD2
000b1b 817b         ldd  r23,y+3
000b1c 816a         ldd  r22,y+2
000b1d 81f9         ldd  r31,y+1
000b1e 81e8         ld   r30,y
000b1f fb77         bst  r23,7
000b20 0f77         lsl  r23
000b21 fd67         sbrc r22,7
000b22 6071         sbr  r23,1
000b23 2f97         mov  r25,r23
000b24 579e         subi r25,0x7e
000b25 f081         breq __ftrunc0
000b26 f078         brcs __ftrunc0
000b27 3198         cpi  r25,24
000b28 f490         brsh __ftrunc1
000b29 27aa         clr  r26
000b2a 27bb         clr  r27
000b2b 2788         clr  r24
                 __ftrunc2:
000b2c 9408         sec
000b2d 9587         ror  r24
000b2e 95b7         ror  r27
000b2f 95a7         ror  r26
000b30 959a         dec  r25
000b31 f7d1         brne __ftrunc2
000b32 23ea         and  r30,r26
000b33 23fb         and  r31,r27
000b34 2368         and  r22,r24
000b35 c005         rjmp __ftrunc1
                 __ftrunc0:
000b36 94e8         clt
000b37 2777         clr  r23
000b38 27ee         clr  r30
000b39 27ff         clr  r31
000b3a 2766         clr  r22
                 __ftrunc1:
000b3b 776f         cbr  r22,0x80
000b3c 9576         lsr  r23
000b3d f408         brcc __ftrunc3
000b3e 6860         sbr  r22,0x80
                 __ftrunc3:
000b3f f977         bld  r23,7
000b40 91a9         ld   r26,y+
000b41 91b9         ld   r27,y+
000b42 9189         ld   r24,y+
000b43 9199         ld   r25,y+
000b44 17ea         cp   r30,r26
000b45 07fb         cpc  r31,r27
000b46 0768         cpc  r22,r24
000b47 0779         cpc  r23,r25
000b48 fb97         bst  r25,7
000b49 9508         ret
                 _floor:
000b4a d485      	RCALL __PUTPARD2
000b4b d475      	RCALL __GETD2S0
000b4c dfcd      	RCALL _ftrunc
000b4d d478      	RCALL __PUTD1S0
000b4e f411          brne __floor1
                 __floor0:
000b4f d164      	RCALL SUBOPT_0x44
000b50 c007      	RJMP _0x2100001
                 __floor1:
000b51 f7ee          brtc __floor0
000b52 d161      	RCALL SUBOPT_0x44
                +
000b53 e0a0     +LDI R26 , LOW ( 0x3F800000 )
000b54 e0b0     +LDI R27 , HIGH ( 0x3F800000 )
000b55 e880     +LDI R24 , BYTE3 ( 0x3F800000 )
000b56 e39f     +LDI R25 , BYTE4 ( 0x3F800000 )
                 	__GETD2N 0x3F800000
000b57 d2fc      	RCALL __SUBF12
                 _0x2100001:
000b58 9624      	ADIW R28,4
000b59 9508      	RET
                 
                 	.CSEG
                 _strcpyf:
000b5a d0f1      	RCALL SUBOPT_0x30
000b5b 91e9          ld   r30,y+
000b5c 91f9          ld   r31,y+
000b5d 91a9          ld   r26,y+
000b5e 91b9          ld   r27,y+
000b5f 01cd          movw r24,r26
                 strcpyf0:
000b60 9005      	lpm  r0,z+
000b61 920d          st   x+,r0
000b62 2000          tst  r0
000b63 f7e1          brne strcpyf0
000b64 01fc          movw r30,r24
000b65 9508          ret
                 _strlen:
000b66 d0e5      	RCALL SUBOPT_0x30
000b67 91a9          ld   r26,y+
000b68 91b9          ld   r27,y+
000b69 27ee          clr  r30
000b6a 27ff          clr  r31
                 strlen0:
000b6b 916d          ld   r22,x+
000b6c 2366          tst  r22
000b6d f011          breq strlen1
000b6e 9631          adiw r30,1
000b6f cffb          rjmp strlen0
                 strlen1:
000b70 9508          ret
                 _strlenf:
000b71 d0da      	RCALL SUBOPT_0x30
000b72 27aa          clr  r26
000b73 27bb          clr  r27
000b74 91e9          ld   r30,y+
000b75 91f9          ld   r31,y+
                 strlenf0:
000b76 9005      	lpm  r0,z+
000b77 2000          tst  r0
000b78 f011          breq strlenf1
000b79 9611          adiw r26,1
000b7a cffb          rjmp strlenf0
                 strlenf1:
000b7b 01fd          movw r30,r26
000b7c 9508          ret
                 
                 	.CSEG
                 _bcd2bin:
000b7d 93aa      	ST   -Y,R26
000b7e 81e8          ld   r30,y
000b7f 95e2          swap r30
000b80 70ef          andi r30,0xf
000b81 2fae          mov  r26,r30
000b82 0faa          lsl  r26
000b83 0faa          lsl  r26
000b84 0fea          add  r30,r26
000b85 0fee          lsl  r30
000b86 91a9          ld   r26,y+
000b87 70af          andi r26,0xf
000b88 0fea          add  r30,r26
000b89 9508          ret
                 _bin2bcd:
000b8a 93aa      	ST   -Y,R26
000b8b 91a9          ld   r26,y+
000b8c 27ee          clr  r30
                 bin2bcd0:
000b8d 50aa          subi r26,10
000b8e f012          brmi bin2bcd1
000b8f 5fe0          subi r30,-16
000b90 cffc          rjmp bin2bcd0
                 bin2bcd1:
000b91 5fa6          subi r26,-10
000b92 0fea          add  r30,r26
000b93 9508          ret
                 
                 	.DSEG
                 _strr:
00033b           	.BYTE 0x4
                 _week_day:
00033f           	.BYTE 0x1
                 _miladimonth:
000340           	.BYTE 0xC
                 _shamsimonth:
00034c           	.BYTE 0xC
                 __seed_G100:
000358           	.BYTE 0x4
                 __base_y_G102:
00035c           	.BYTE 0x4
                 __lcd_x:
000360           	.BYTE 0x1
                 __lcd_y:
000361           	.BYTE 0x1
                 __lcd_maxx:
000362           	.BYTE 0x1
                 
                 	.CSEG
                 ;OPTIMIZER ADDED SUBROUTINE, CALLED 12 TIMES, CODE SIZE REDUCTION:9 WORDS
                 SUBOPT_0x0:
000b94 e0a8      	LDI  R26,LOW(8)
000b95 cd0b      	RJMP _rtc_read
                 
                 ;OPTIMIZER ADDED SUBROUTINE, CALLED 12 TIMES, CODE SIZE REDUCTION:9 WORDS
                 SUBOPT_0x1:
000b96 91a0 033f 	LDS  R26,_week_day
000b98 9508      	RET
                 
                 ;OPTIMIZER ADDED SUBROUTINE, CALLED 8 TIMES, CODE SIZE REDUCTION:19 WORDS
                 SUBOPT_0x2:
000b99 01fe      	MOVW R30,R28
000b9a 93fa      	ST   -Y,R31
000b9b 93ea      	ST   -Y,R30
000b9c 9508      	RET
                 
                 ;OPTIMIZER ADDED SUBROUTINE, CALLED 40 TIMES, CODE SIZE REDUCTION:37 WORDS
                 SUBOPT_0x3:
000b9d 93fa      	ST   -Y,R31
000b9e 93ea      	ST   -Y,R30
000b9f 9508      	RET
                 
                 ;OPTIMIZER ADDED SUBROUTINE, CALLED 4 TIMES, CODE SIZE REDUCTION:1 WORDS
                 SUBOPT_0x4:
000ba0 91e0 033f 	LDS  R30,_week_day
000ba2 9508      	RET
                 
                 ;OPTIMIZER ADDED SUBROUTINE, CALLED 28 TIMES, CODE SIZE REDUCTION:79 WORDS
                 SUBOPT_0x5:
000ba3 27ff      	CLR  R31
000ba4 2766      	CLR  R22
000ba5 2777      	CLR  R23
000ba6 d424      	RCALL __PUTPARD1
000ba7 9508      	RET
                 
                 ;OPTIMIZER ADDED SUBROUTINE, CALLED 2 TIMES, CODE SIZE REDUCTION:3 WORDS
                 SUBOPT_0x6:
000ba8 e0a5      	LDI  R26,LOW(5)
000ba9 ddab      	RCALL _lcd_putchar
000baa e0a4      	LDI  R26,LOW(4)
000bab dda9      	RCALL _lcd_putchar
000bac e0a3      	LDI  R26,LOW(3)
000bad cda7      	RJMP _lcd_putchar
                 
                 ;OPTIMIZER ADDED SUBROUTINE, CALLED 6 TIMES, CODE SIZE REDUCTION:8 WORDS
                 SUBOPT_0x7:
000bae 01de      	MOVW R26,R28
000baf cdc1      	RJMP _lcd_puts
                 
                 ;OPTIMIZER ADDED SUBROUTINE, CALLED 4 TIMES, CODE SIZE REDUCTION:7 WORDS
                 SUBOPT_0x8:
000bb0 e1e3      	LDI  R30,LOW(19)
000bb1 93ea      	ST   -Y,R30
000bb2 e0a1      	LDI  R26,LOW(1)
000bb3 cd81      	RJMP _lcd_gotoxy
                 
                 ;OPTIMIZER ADDED SUBROUTINE, CALLED 2 TIMES, CODE SIZE REDUCTION:4 WORDS
                 SUBOPT_0x9:
000bb4 ddbc      	RCALL _lcd_puts
000bb5 e3a2      	LDI  R26,LOW(50)
000bb6 e0b0      	LDI  R27,0
000bb7 d1f3      	RCALL _delay_ms
000bb8 cff7      	RJMP SUBOPT_0x8
                 
                 ;OPTIMIZER ADDED SUBROUTINE, CALLED 5 TIMES, CODE SIZE REDUCTION:2 WORDS
                 SUBOPT_0xA:
000bb9 e0a1      	LDI  R26,LOW(1)
000bba cd9a      	RJMP _lcd_putchar
                 
                 ;OPTIMIZER ADDED SUBROUTINE, CALLED 7 TIMES, CODE SIZE REDUCTION:22 WORDS
                 SUBOPT_0xB:
000bbb e3a2      	LDI  R26,LOW(50)
000bbc e0b0      	LDI  R27,0
000bbd c1ed      	RJMP _delay_ms
                 
                 ;OPTIMIZER ADDED SUBROUTINE, CALLED 4 TIMES, CODE SIZE REDUCTION:7 WORDS
                 SUBOPT_0xC:
000bbe e1e3      	LDI  R30,LOW(19)
000bbf 93ea      	ST   -Y,R30
000bc0 e0a0      	LDI  R26,LOW(0)
000bc1 cd73      	RJMP _lcd_gotoxy
                 
                 ;OPTIMIZER ADDED SUBROUTINE, CALLED 5 TIMES, CODE SIZE REDUCTION:2 WORDS
                 SUBOPT_0xD:
000bc2 e0a0      	LDI  R26,LOW(0)
000bc3 cd91      	RJMP _lcd_putchar
                 
                 ;OPTIMIZER ADDED SUBROUTINE, CALLED 2 TIMES, CODE SIZE REDUCTION:5 WORDS
                 SUBOPT_0xE:
000bc4 93aa      	ST   -Y,R26
000bc5 9724      	SBIW R28,4
000bc6 e0e0      	LDI  R30,LOW(0)
000bc7 93ea      	ST   -Y,R30
000bc8 e0a1      	LDI  R26,LOW(1)
000bc9 dd6b      	RCALL _lcd_gotoxy
000bca 81ec      	LDD  R30,Y+4
000bcb 30e0      	CPI  R30,0
000bcc 9508      	RET
                 
                 ;OPTIMIZER ADDED SUBROUTINE, CALLED 4 TIMES, CODE SIZE REDUCTION:4 WORDS
                 SUBOPT_0xF:
000bcd dfcf      	RCALL SUBOPT_0x3
000bce 2de8      	MOV  R30,R8
000bcf cfd3      	RJMP SUBOPT_0x5
                 
                 ;OPTIMIZER ADDED SUBROUTINE, CALLED 4 TIMES, CODE SIZE REDUCTION:1 WORDS
                 SUBOPT_0x10:
000bd0 2ded      	MOV  R30,R13
000bd1 cfd1      	RJMP SUBOPT_0x5
                 
                 ;OPTIMIZER ADDED SUBROUTINE, CALLED 4 TIMES, CODE SIZE REDUCTION:1 WORDS
                 SUBOPT_0x11:
000bd2 2dec      	MOV  R30,R12
000bd3 cfcf      	RJMP SUBOPT_0x5
                 
                 ;OPTIMIZER ADDED SUBROUTINE, CALLED 9 TIMES, CODE SIZE REDUCTION:14 WORDS
                 SUBOPT_0x12:
000bd4 e08c      	LDI  R24,12
000bd5 df1b      	RCALL _sprintf
000bd6 9660      	ADIW R28,16
000bd7 9508      	RET
                 
                 ;OPTIMIZER ADDED SUBROUTINE, CALLED 5 TIMES, CODE SIZE REDUCTION:6 WORDS
                 SUBOPT_0x13:
000bd8 dfc4      	RCALL SUBOPT_0x3
000bd9 2de9      	MOV  R30,R9
000bda cfc8      	RJMP SUBOPT_0x5
                 
                 ;OPTIMIZER ADDED SUBROUTINE, CALLED 5 TIMES, CODE SIZE REDUCTION:2 WORDS
                 SUBOPT_0x14:
000bdb 2de6      	MOV  R30,R6
000bdc cfc6      	RJMP SUBOPT_0x5
                 
                 ;OPTIMIZER ADDED SUBROUTINE, CALLED 4 TIMES, CODE SIZE REDUCTION:1 WORDS
                 SUBOPT_0x15:
000bdd 2de7      	MOV  R30,R7
000bde cfc4      	RJMP SUBOPT_0x5
                 
                 ;OPTIMIZER ADDED SUBROUTINE, CALLED 2 TIMES, CODE SIZE REDUCTION:1 WORDS
                 SUBOPT_0x16:
000bdf 81e8      	LD   R30,Y
000be0 e0f0      	LDI  R31,0
000be1 9508      	RET
                 
                 ;OPTIMIZER ADDED SUBROUTINE, CALLED 4 TIMES, CODE SIZE REDUCTION:1 WORDS
                 SUBOPT_0x17:
000be2 d3be      	RCALL __MODW21
000be3 9730      	SBIW R30,0
000be4 9508      	RET
                 
                 ;OPTIMIZER ADDED SUBROUTINE, CALLED 2 TIMES, CODE SIZE REDUCTION:1 WORDS
                 SUBOPT_0x18:
000be5 01db      	MOVW R26,R22
000be6 e6e4      	LDI  R30,LOW(100)
000be7 e0f0      	LDI  R31,HIGH(100)
000be8 cff9      	RJMP SUBOPT_0x17
                 
                 ;OPTIMIZER ADDED SUBROUTINE, CALLED 14 TIMES, CODE SIZE REDUCTION:37 WORDS
                 SUBOPT_0x19:
000be9 e0b0      	LDI  R27,0
000bea c1c0      	RJMP _delay_ms
                 
                 ;OPTIMIZER ADDED SUBROUTINE, CALLED 7 TIMES, CODE SIZE REDUCTION:16 WORDS
                 SUBOPT_0x1A:
000beb e0e0      	LDI  R30,LOW(0)
000bec 93ea      	ST   -Y,R30
000bed e0a0      	LDI  R26,LOW(0)
000bee cd46      	RJMP _lcd_gotoxy
                 
                 ;OPTIMIZER ADDED SUBROUTINE, CALLED 4 TIMES, CODE SIZE REDUCTION:1 WORDS
                 SUBOPT_0x1B:
000bef dd81      	RCALL _lcd_puts
000bf0 cfc8      	RJMP SUBOPT_0xA
                 
                 ;OPTIMIZER ADDED SUBROUTINE, CALLED 4 TIMES, CODE SIZE REDUCTION:1 WORDS
                 SUBOPT_0x1C:
000bf1 dd7f      	RCALL _lcd_puts
000bf2 cfcf      	RJMP SUBOPT_0xD
                 
                 ;OPTIMIZER ADDED SUBROUTINE, CALLED 5 TIMES, CODE SIZE REDUCTION:10 WORDS
                 SUBOPT_0x1D:
000bf3 e0a0      	LDI  R26,0
000bf4 9b9a      	SBIS 0x13,2
000bf5 e0a1      	LDI  R26,1
000bf6 30a0      	CPI  R26,LOW(0x0)
000bf7 9508      	RET
                 
                 ;OPTIMIZER ADDED SUBROUTINE, CALLED 5 TIMES, CODE SIZE REDUCTION:10 WORDS
                 SUBOPT_0x1E:
000bf8 e0a0      	LDI  R26,0
000bf9 9b9b      	SBIS 0x13,3
000bfa e0a1      	LDI  R26,1
000bfb 30a0      	CPI  R26,LOW(0x0)
000bfc 9508      	RET
                 
                 ;OPTIMIZER ADDED SUBROUTINE, CALLED 6 TIMES, CODE SIZE REDUCTION:13 WORDS
                 SUBOPT_0x1F:
000bfd e0a0      	LDI  R26,0
000bfe 9b9c      	SBIS 0x13,4
000bff e0a1      	LDI  R26,1
000c00 30a0      	CPI  R26,LOW(0x0)
000c01 9508      	RET
                 
                 ;OPTIMIZER ADDED SUBROUTINE, CALLED 6 TIMES, CODE SIZE REDUCTION:13 WORDS
                 SUBOPT_0x20:
000c02 e0a0      	LDI  R26,0
000c03 9b82      	SBIS 0x10,2
000c04 e0a1      	LDI  R26,1
000c05 30a0      	CPI  R26,LOW(0x0)
000c06 9508      	RET
                 
                 ;OPTIMIZER ADDED SUBROUTINE, CALLED 5 TIMES, CODE SIZE REDUCTION:2 WORDS
                 SUBOPT_0x21:
000c07 94e8      	CLT
000c08 f8f0      	BLD  R15,0
000c09 9508      	RET
                 
                 ;OPTIMIZER ADDED SUBROUTINE, CALLED 3 TIMES, CODE SIZE REDUCTION:14 WORDS
                 SUBOPT_0x22:
000c0a e0e8      	LDI  R30,LOW(8)
000c0b e0f0      	LDI  R31,HIGH(8)
000c0c df90      	RCALL SUBOPT_0x3
000c0d e0ed      	LDI  R30,LOW(13)
000c0e e0f0      	LDI  R31,HIGH(13)
000c0f df8d      	RCALL SUBOPT_0x3
000c10 e0ac      	LDI  R26,LOW(12)
000c11 e0b0      	LDI  R27,HIGH(12)
000c12 ccb4      	RJMP _rtc_get_time
                 
                 ;OPTIMIZER ADDED SUBROUTINE, CALLED 13 TIMES, CODE SIZE REDUCTION:10 WORDS
                 SUBOPT_0x23:
000c13 2fa1      	MOV  R26,R17
000c14 c6f4      	RJMP _timesetshow
                 
                 ;OPTIMIZER ADDED SUBROUTINE, CALLED 2 TIMES, CODE SIZE REDUCTION:2 WORDS
                 SUBOPT_0x24:
000c15 2fe1      	MOV  R30,R17
000c16 e0f0      	LDI  R31,0
000c17 9730      	SBIW R30,0
000c18 9508      	RET
                 
                 ;OPTIMIZER ADDED SUBROUTINE, CALLED 6 TIMES, CODE SIZE REDUCTION:8 WORDS
                 SUBOPT_0x25:
000c19 ebac      	LDI  R26,LOW(700)
000c1a e0b2      	LDI  R27,HIGH(700)
000c1b c18f      	RJMP _delay_ms
                 
                 ;OPTIMIZER ADDED SUBROUTINE, CALLED 6 TIMES, CODE SIZE REDUCTION:3 WORDS
                 SUBOPT_0x26:
000c1c e8a2      	LDI  R26,LOW(130)
000c1d cfcb      	RJMP SUBOPT_0x19
                 
                 ;OPTIMIZER ADDED SUBROUTINE, CALLED 2 TIMES, CODE SIZE REDUCTION:3 WORDS
                 SUBOPT_0x27:
000c1e dd52      	RCALL _lcd_puts
000c1f e0e0      	LDI  R30,LOW(0)
000c20 93ea      	ST   -Y,R30
000c21 e0a1      	LDI  R26,LOW(1)
000c22 dd12      	RCALL _lcd_gotoxy
000c23 cf70      	RJMP SUBOPT_0x0
                 
                 ;OPTIMIZER ADDED SUBROUTINE, CALLED 4 TIMES, CODE SIZE REDUCTION:4 WORDS
                 SUBOPT_0x28:
000c24 e0e8      	LDI  R30,LOW(8)
000c25 93ea      	ST   -Y,R30
000c26 cf6d      	RJMP SUBOPT_0x0
                 
                 ;OPTIMIZER ADDED SUBROUTINE, CALLED 3 TIMES, CODE SIZE REDUCTION:2 WORDS
                 SUBOPT_0x29:
000c27 93ea      	ST   -Y,R30
000c28 e0a0      	LDI  R26,LOW(0)
000c29 cd0b      	RJMP _lcd_gotoxy
                 
                 ;OPTIMIZER ADDED SUBROUTINE, CALLED 2 TIMES, CODE SIZE REDUCTION:9 WORDS
                 SUBOPT_0x2A:
000c2a e3ef      	LDI  R30,LOW(_week_day)
000c2b e0f3      	LDI  R31,HIGH(_week_day)
000c2c df70      	RCALL SUBOPT_0x3
000c2d e0e7      	LDI  R30,LOW(7)
000c2e e0f0      	LDI  R31,HIGH(7)
000c2f df6d      	RCALL SUBOPT_0x3
000c30 e0e6      	LDI  R30,LOW(6)
000c31 e0f0      	LDI  R31,HIGH(6)
000c32 df6a      	RCALL SUBOPT_0x3
000c33 e0a9      	LDI  R26,LOW(9)
000c34 e0b0      	LDI  R27,HIGH(9)
000c35 ccaa      	RJMP _rtc_get_date
                 
                 ;OPTIMIZER ADDED SUBROUTINE, CALLED 9 TIMES, CODE SIZE REDUCTION:6 WORDS
                 SUBOPT_0x2B:
000c36 2fa1      	MOV  R26,R17
000c37 c6f0      	RJMP _datesetshow
                 
                 ;OPTIMIZER ADDED SUBROUTINE, CALLED 4 TIMES, CODE SIZE REDUCTION:4 WORDS
                 SUBOPT_0x2C:
000c38 efa4      	LDI  R26,LOW(500)
000c39 e0b1      	LDI  R27,HIGH(500)
000c3a c170      	RJMP _delay_ms
                 
                 ;OPTIMIZER ADDED SUBROUTINE, CALLED 4 TIMES, CODE SIZE REDUCTION:1 WORDS
                 SUBOPT_0x2D:
000c3b e6a4      	LDI  R26,LOW(100)
000c3c cfac      	RJMP SUBOPT_0x19
                 
                 ;OPTIMIZER ADDED SUBROUTINE, CALLED 2 TIMES, CODE SIZE REDUCTION:6 WORDS
                 SUBOPT_0x2E:
000c3d 9473      	INC  R7
000c3e 2de6      	MOV  R30,R6
000c3f e0f0      	LDI  R31,0
000c40 5ce0      	SUBI R30,LOW(-_miladimonth)
000c41 4ffc      	SBCI R31,HIGH(-_miladimonth)
000c42 81e0      	LD   R30,Z
000c43 15e7      	CP   R30,R7
000c44 9508      	RET
                 
                 ;OPTIMIZER ADDED SUBROUTINE, CALLED 2 TIMES, CODE SIZE REDUCTION:3 WORDS
                 SUBOPT_0x2F:
000c45 df5a      	RCALL SUBOPT_0x4
000c46 5fef      	SUBI R30,-LOW(1)
000c47 93e0 033f 	STS  _week_day,R30
000c49 df4c      	RCALL SUBOPT_0x1
000c4a 30a8      	CPI  R26,LOW(0x8)
000c4b 9508      	RET
                 
                 ;OPTIMIZER ADDED SUBROUTINE, CALLED 10 TIMES, CODE SIZE REDUCTION:7 WORDS
                 SUBOPT_0x30:
000c4c 93ba      	ST   -Y,R27
000c4d 93aa      	ST   -Y,R26
000c4e 9508      	RET
                 
                 ;OPTIMIZER ADDED SUBROUTINE, CALLED 5 TIMES, CODE SIZE REDUCTION:2 WORDS
                 SUBOPT_0x31:
000c4f e0e0      	LDI  R30,LOW(0)
000c50 83ee      	STD  Y+6,R30
000c51 9508      	RET
                 
                 ;OPTIMIZER ADDED SUBROUTINE, CALLED 3 TIMES, CODE SIZE REDUCTION:12 WORDS
                 SUBOPT_0x32:
000c52 81ee      	LDD  R30,Y+6
000c53 e0f0      	LDI  R31,0
000c54 01de      	MOVW R26,R28
000c55 9617      	ADIW R26,7
000c56 0fee      	LSL  R30
000c57 1fff      	ROL  R31
000c58 9508      	RET
                 
                 ;OPTIMIZER ADDED SUBROUTINE, CALLED 7 TIMES, CODE SIZE REDUCTION:4 WORDS
                 SUBOPT_0x33:
000c59 0fae      	ADD  R26,R30
000c5a 1fbf      	ADC  R27,R31
000c5b 9508      	RET
                 
                 ;OPTIMIZER ADDED SUBROUTINE, CALLED 2 TIMES, CODE SIZE REDUCTION:1 WORDS
                 SUBOPT_0x34:
000c5c e0e0      	LDI  R30,LOW(0)
000c5d e0f0      	LDI  R31,HIGH(0)
000c5e 93ed      	ST   X+,R30
000c5f 93fc      	ST   X,R31
000c60 9508      	RET
                 
                 ;OPTIMIZER ADDED SUBROUTINE, CALLED 5 TIMES, CODE SIZE REDUCTION:6 WORDS
                 SUBOPT_0x35:
000c61 81ee      	LDD  R30,Y+6
000c62 5fef      	SUBI R30,-LOW(1)
000c63 83ee      	STD  Y+6,R30
000c64 9508      	RET
                 
                 ;OPTIMIZER ADDED SUBROUTINE, CALLED 6 TIMES, CODE SIZE REDUCTION:18 WORDS
                 SUBOPT_0x36:
000c65 e0e0      	LDI  R30,LOW(0)
                +
000c66 01de     +MOVW R26 , R28
000c67 5aa9     +SUBI R26 , LOW ( - 87 )
000c68 4fbf     +SBCI R27 , HIGH ( - 87 )
000c69 93ec     +ST X , R30
                 	__PUTB1SX 87
000c6a 9508      	RET
                 
                 ;OPTIMIZER ADDED SUBROUTINE, CALLED 5 TIMES, CODE SIZE REDUCTION:10 WORDS
                 SUBOPT_0x37:
                +
000c6b 01de     +MOVW R26 , R28
000c6c 5aa9     +SUBI R26 , LOW ( - 87 )
000c6d 4fbf     +SBCI R27 , HIGH ( - 87 )
000c6e 91ac     +LD R26 , X
                 	__GETB2SX 87
000c6f 9508      	RET
                 
                 ;OPTIMIZER ADDED SUBROUTINE, CALLED 4 TIMES, CODE SIZE REDUCTION:22 WORDS
                 SUBOPT_0x38:
000c70 01de      	MOVW R26,R28
000c71 5aa9      	SUBI R26,LOW(-(87))
000c72 4fbf      	SBCI R27,HIGH(-(87))
000c73 91ec      	LD   R30,X
000c74 5fef      	SUBI R30,-LOW(1)
000c75 93ec      	ST   X,R30
                +
000c76 e085     +LDI R24 , LOW ( 5 )
                +__DELAY_USB_LOOP :
000c77 958a     +DEC R24
000c78 f7f1     +BRNE __DELAY_USB_LOOP
                 	__DELAY_USB 5
000c79 9508      	RET
                 
                 ;OPTIMIZER ADDED SUBROUTINE, CALLED 19 TIMES, CODE SIZE REDUCTION:34 WORDS
                 SUBOPT_0x39:
000c7a e0f0      	LDI  R31,0
000c7b 9508      	RET
                 
                 ;OPTIMIZER ADDED SUBROUTINE, CALLED 3 TIMES, CODE SIZE REDUCTION:2 WORDS
                 SUBOPT_0x3A:
000c7c dfdc      	RCALL SUBOPT_0x33
000c7d d331      	RCALL __GETW1P
000c7e 9737      	SBIW R30,7
000c7f 9508      	RET
                 
                 ;OPTIMIZER ADDED SUBROUTINE, CALLED 6 TIMES, CODE SIZE REDUCTION:3 WORDS
                 SUBOPT_0x3B:
000c80 81ee      	LDD  R30,Y+6
000c81 cff8      	RJMP SUBOPT_0x39
                 
                 ;OPTIMIZER ADDED SUBROUTINE, CALLED 2 TIMES, CODE SIZE REDUCTION:5 WORDS
                 SUBOPT_0x3C:
000c82 e0af      	LDI  R26,LOW(15)
000c83 e0b0      	LDI  R27,HIGH(15)
000c84 d356      	RCALL __SWAPW12
000c85 1bea      	SUB  R30,R26
000c86 0bfb      	SBC  R31,R27
000c87 e0a1      	LDI  R26,LOW(1)
000c88 e0b0      	LDI  R27,HIGH(1)
000c89 d2ec      	RCALL __LSLW12
000c8a 9508      	RET
                 
                 ;OPTIMIZER ADDED SUBROUTINE, CALLED 2 TIMES, CODE SIZE REDUCTION:2 WORDS
                 SUBOPT_0x3D:
000c8b 01de      	MOVW R26,R28
000c8c 9617      	ADIW R26,7
000c8d 0fee      	LSL  R30
000c8e 1fff      	ROL  R31
000c8f cfec      	RJMP SUBOPT_0x3A
                 
                 ;OPTIMIZER ADDED SUBROUTINE, CALLED 3 TIMES, CODE SIZE REDUCTION:16 WORDS
                 SUBOPT_0x3E:
000c90 d2f3      	RCALL __CWD1
000c91 d18f      	RCALL __CDF1
000c92 01df      	MOVW R26,R30
000c93 01cb      	MOVW R24,R22
                +
000c94 e0e0     +LDI R30 , LOW ( 0x41200000 )
000c95 e0f0     +LDI R31 , HIGH ( 0x41200000 )
000c96 e260     +LDI R22 , BYTE3 ( 0x41200000 )
000c97 e471     +LDI R23 , BYTE4 ( 0x41200000 )
                 	__GETD1N 0x41200000
000c98 d260      	RCALL __DIVF21
000c99 9508      	RET
                 
                 ;OPTIMIZER ADDED SUBROUTINE, CALLED 3 TIMES, CODE SIZE REDUCTION:2 WORDS
                 SUBOPT_0x3F:
000c9a e0b0      	LDI  R27,0
000c9b 9508      	RET
                 
                 ;OPTIMIZER ADDED SUBROUTINE, CALLED 2 TIMES, CODE SIZE REDUCTION:7 WORDS
                 SUBOPT_0x40:
000c9c 2fe1      	MOV  R30,R17
000c9d dfdc      	RCALL SUBOPT_0x39
000c9e 5be4      	SUBI R30,LOW(-_shamsimonth)
000c9f 4ffc      	SBCI R31,HIGH(-_shamsimonth)
000ca0 81a0      	LD   R26,Z
000ca1 dff8      	RCALL SUBOPT_0x3F
                +
000ca2 1b4a     +SUB R20 , R26
000ca3 0b5b     +SBC R21 , R27
                 	__SUBWRR 20,21,26,27
000ca4 9453      	INC  R5
000ca5 5f1f      	SUBI R17,-1
000ca6 9508      	RET
                 
                 ;OPTIMIZER ADDED SUBROUTINE, CALLED 5 TIMES, CODE SIZE REDUCTION:2 WORDS
                 SUBOPT_0x41:
000ca7 e0e0      	LDI  R30,LOW(0)
000ca8 93ea      	ST   -Y,R30
000ca9 9508      	RET
                 
                 ;OPTIMIZER ADDED SUBROUTINE, CALLED 2 TIMES, CODE SIZE REDUCTION:1 WORDS
                 SUBOPT_0x42:
000caa e0e8      	LDI  R30,LOW(8)
000cab 93ea      	ST   -Y,R30
000cac e0a0      	LDI  R26,LOW(0)
000cad cbfe      	RJMP _rtc_write
                 
                 ;OPTIMIZER ADDED SUBROUTINE, CALLED 2 TIMES, CODE SIZE REDUCTION:2 WORDS
                 SUBOPT_0x43:
000cae 01fe      	MOVW R30,R28
000caf 9638      	ADIW R30,8
000cb0 deec      	RCALL SUBOPT_0x3
                +
000cb1 e7ef     +LDI R30 , LOW ( 2 * _0x0 + ( 641 ) )
000cb2 e0f3     +LDI R31 , HIGH ( 2 * _0x0 + ( 641 ) )
                 	__POINTW1FN _0x0,641
000cb3 9508      	RET
                 
                 ;OPTIMIZER ADDED SUBROUTINE, CALLED 3 TIMES, CODE SIZE REDUCTION:4 WORDS
                 SUBOPT_0x44:
000cb4 d307      	RCALL __GETD1S0
000cb5 9508      	RET
                 
                 ;OPTIMIZER ADDED SUBROUTINE, CALLED 3 TIMES, CODE SIZE REDUCTION:2 WORDS
                 SUBOPT_0x45:
000cb6 81ee      	LDD  R30,Y+6
000cb7 81ff      	LDD  R31,Y+6+1
000cb8 cee4      	RJMP SUBOPT_0x3
                 
                 ;OPTIMIZER ADDED SUBROUTINE, CALLED 2 TIMES, CODE SIZE REDUCTION:1 WORDS
                 SUBOPT_0x46:
                +
000cb9 85e9     +LDD R30 , Y + 9
000cba 85fa     +LDD R31 , Y + 9 + 1
000cbb 856b     +LDD R22 , Y + 9 + 2
000cbc 857c     +LDD R23 , Y + 9 + 3
                 	__GETD1S 9
000cbd 9508      	RET
                 
                 ;OPTIMIZER ADDED SUBROUTINE, CALLED 5 TIMES, CODE SIZE REDUCTION:10 WORDS
                 SUBOPT_0x47:
                +
000cbe 87e9     +STD Y + 9 , R30
000cbf 87fa     +STD Y + 9 + 1 , R31
000cc0 876b     +STD Y + 9 + 2 , R22
000cc1 877c     +STD Y + 9 + 3 , R23
                 	__PUTD1S 9
000cc2 9508      	RET
                 
                 ;OPTIMIZER ADDED SUBROUTINE, CALLED 5 TIMES, CODE SIZE REDUCTION:18 WORDS
                 SUBOPT_0x48:
000cc3 81ae      	LDD  R26,Y+6
000cc4 81bf      	LDD  R27,Y+6+1
000cc5 9611      	ADIW R26,1
000cc6 83ae      	STD  Y+6,R26
000cc7 83bf      	STD  Y+6+1,R27
000cc8 9711      	SBIW R26,1
000cc9 9508      	RET
                 
                 ;OPTIMIZER ADDED SUBROUTINE, CALLED 4 TIMES, CODE SIZE REDUCTION:7 WORDS
                 SUBOPT_0x49:
                +
000cca 81aa     +LDD R26 , Y + 2
000ccb 81bb     +LDD R27 , Y + 2 + 1
000ccc 818c     +LDD R24 , Y + 2 + 2
000ccd 819d     +LDD R25 , Y + 2 + 3
                 	__GETD2S 2
000cce 9508      	RET
                 
                 ;OPTIMIZER ADDED SUBROUTINE, CALLED 2 TIMES, CODE SIZE REDUCTION:2 WORDS
                 SUBOPT_0x4A:
                +
000ccf eced     +LDI R30 , LOW ( 0x3DCCCCCD )
000cd0 ecfc     +LDI R31 , HIGH ( 0x3DCCCCCD )
000cd1 ec6c     +LDI R22 , BYTE3 ( 0x3DCCCCCD )
000cd2 e37d     +LDI R23 , BYTE4 ( 0x3DCCCCCD )
                 	__GETD1N 0x3DCCCCCD
000cd3 d1d7      	RCALL __MULF12
000cd4 9508      	RET
                 
                 ;OPTIMIZER ADDED SUBROUTINE, CALLED 4 TIMES, CODE SIZE REDUCTION:7 WORDS
                 SUBOPT_0x4B:
                +
000cd5 83ea     +STD Y + 2 , R30
000cd6 83fb     +STD Y + 2 + 1 , R31
000cd7 836c     +STD Y + 2 + 2 , R22
000cd8 837d     +STD Y + 2 + 3 , R23
                 	__PUTD1S 2
000cd9 9508      	RET
                 
                 ;OPTIMIZER ADDED SUBROUTINE, CALLED 3 TIMES, CODE SIZE REDUCTION:12 WORDS
                 SUBOPT_0x4C:
                +
000cda 81ea     +LDD R30 , Y + 2
000cdb 81fb     +LDD R31 , Y + 2 + 1
000cdc 816c     +LDD R22 , Y + 2 + 2
000cdd 817d     +LDD R23 , Y + 2 + 3
                 	__GETD1S 2
                +
000cde 85a9     +LDD R26 , Y + 9
000cdf 85ba     +LDD R27 , Y + 9 + 1
000ce0 858b     +LDD R24 , Y + 9 + 2
000ce1 859c     +LDD R25 , Y + 9 + 3
                 	__GETD2S 9
000ce2 9508      	RET
                 
                 ;OPTIMIZER ADDED SUBROUTINE, CALLED 2 TIMES, CODE SIZE REDUCTION:2 WORDS
                 SUBOPT_0x4D:
                +
000ce3 e0e0     +LDI R30 , LOW ( 0x41200000 )
000ce4 e0f0     +LDI R31 , HIGH ( 0x41200000 )
000ce5 e260     +LDI R22 , BYTE3 ( 0x41200000 )
000ce6 e471     +LDI R23 , BYTE4 ( 0x41200000 )
                 	__GETD1N 0x41200000
000ce7 d1c3      	RCALL __MULF12
000ce8 9508      	RET
                 
                 ;OPTIMIZER ADDED SUBROUTINE, CALLED 2 TIMES, CODE SIZE REDUCTION:2 WORDS
                 SUBOPT_0x4E:
000ce9 2fe0      	MOV  R30,R16
000cea 5de0      	SUBI R30,-LOW(48)
000ceb 93ec      	ST   X,R30
000cec 2fe0      	MOV  R30,R16
000ced cf8c      	RJMP SUBOPT_0x39
                 
                 ;OPTIMIZER ADDED SUBROUTINE, CALLED 3 TIMES, CODE SIZE REDUCTION:4 WORDS
                 SUBOPT_0x4F:
                +
000cee 85a9     +LDD R26 , Y + 9
000cef 85ba     +LDD R27 , Y + 9 + 1
000cf0 858b     +LDD R24 , Y + 9 + 2
000cf1 859c     +LDD R25 , Y + 9 + 3
                 	__GETD2S 9
000cf2 9508      	RET
                 
                 ;OPTIMIZER ADDED SUBROUTINE, CALLED 2 TIMES, CODE SIZE REDUCTION:2 WORDS
                 SUBOPT_0x50:
000cf3 d06b      	RCALL _i2c_start
000cf4 eda0      	LDI  R26,LOW(208)
000cf5 d09d      	RCALL _i2c_write
000cf6 81a9      	LDD  R26,Y+1
000cf7 c09b      	RJMP _i2c_write
                 
                 ;OPTIMIZER ADDED SUBROUTINE, CALLED 3 TIMES, CODE SIZE REDUCTION:4 WORDS
                 SUBOPT_0x51:
000cf8 d075      	RCALL _i2c_stop
000cf9 d065      	RCALL _i2c_start
000cfa eda1      	LDI  R26,LOW(209)
000cfb c097      	RJMP _i2c_write
                 
                 ;OPTIMIZER ADDED SUBROUTINE, CALLED 4 TIMES, CODE SIZE REDUCTION:1 WORDS
                 SUBOPT_0x52:
000cfc d096      	RCALL _i2c_write
000cfd c070      	RJMP _i2c_stop
                 
                 ;OPTIMIZER ADDED SUBROUTINE, CALLED 5 TIMES, CODE SIZE REDUCTION:6 WORDS
                 SUBOPT_0x53:
000cfe d060      	RCALL _i2c_start
000cff eda0      	LDI  R26,LOW(208)
000d00 c092      	RJMP _i2c_write
                 
                 ;OPTIMIZER ADDED SUBROUTINE, CALLED 4 TIMES, CODE SIZE REDUCTION:7 WORDS
                 SUBOPT_0x54:
000d01 e0a1      	LDI  R26,LOW(1)
000d02 d075      	RCALL _i2c_read
000d03 2fae      	MOV  R26,R30
000d04 ce78      	RJMP _bcd2bin
                 
                 ;OPTIMIZER ADDED SUBROUTINE, CALLED 2 TIMES, CODE SIZE REDUCTION:4 WORDS
                 SUBOPT_0x55:
000d05 81aa      	LDD  R26,Y+2
000d06 81bb      	LDD  R27,Y+2+1
000d07 93ec      	ST   X,R30
000d08 e0a0      	LDI  R26,LOW(0)
000d09 d06e      	RCALL _i2c_read
000d0a 2fae      	MOV  R26,R30
000d0b ce71      	RJMP _bcd2bin
                 
                 ;OPTIMIZER ADDED SUBROUTINE, CALLED 2 TIMES, CODE SIZE REDUCTION:1 WORDS
                 SUBOPT_0x56:
000d0c d086      	RCALL _i2c_write
000d0d 81a8      	LD   R26,Y
000d0e de7b      	RCALL _bin2bcd
000d0f 2fae      	MOV  R26,R30
000d10 9508      	RET
                 
                 ;OPTIMIZER ADDED SUBROUTINE, CALLED 2 TIMES, CODE SIZE REDUCTION:1 WORDS
                 SUBOPT_0x57:
000d11 d081      	RCALL _i2c_write
000d12 81a9      	LDD  R26,Y+1
000d13 de76      	RCALL _bin2bcd
000d14 2fae      	MOV  R26,R30
000d15 9508      	RET
                 
                 ;OPTIMIZER ADDED SUBROUTINE, CALLED 2 TIMES, CODE SIZE REDUCTION:1 WORDS
                 SUBOPT_0x58:
000d16 d07c      	RCALL _i2c_write
000d17 81aa      	LDD  R26,Y+2
000d18 de71      	RCALL _bin2bcd
000d19 2fae      	MOV  R26,R30
000d1a 9508      	RET
                 
                 ;OPTIMIZER ADDED SUBROUTINE, CALLED 5 TIMES, CODE SIZE REDUCTION:2 WORDS
                 SUBOPT_0x59:
000d1b 81ae      	LDD  R26,Y+6
000d1c 81bf      	LDD  R27,Y+6+1
000d1d 9508      	RET
                 
                 ;OPTIMIZER ADDED SUBROUTINE, CALLED 2 TIMES, CODE SIZE REDUCTION:1 WORDS
                 SUBOPT_0x5A:
000d1e 9ac7      	SBI  0x18,7
000d1f 81a8      	LD   R26,Y
000d20 dc03      	RCALL __lcd_write_data
000d21 98c7      	CBI  0x18,7
000d22 9508      	RET
                 
                 ;OPTIMIZER ADDED SUBROUTINE, CALLED 3 TIMES, CODE SIZE REDUCTION:8 WORDS
                 SUBOPT_0x5B:
000d23 e3a0      	LDI  R26,LOW(48)
000d24 dbda      	RCALL __lcd_write_nibble_G102
                +
000d25 ec88     +LDI R24 , LOW ( 200 )
000d26 e090     +LDI R25 , HIGH ( 200 )
                +__DELAY_USW_LOOP :
000d27 9701     +SBIW R24 , 1
000d28 f7f1     +BRNE __DELAY_USW_LOOP
                 	__DELAY_USW 200
000d29 9508      	RET
                 
                 ;OPTIMIZER ADDED SUBROUTINE, CALLED 6 TIMES, CODE SIZE REDUCTION:3 WORDS
                 SUBOPT_0x5C:
000d2a 81aa      	LDD  R26,Y+2
000d2b 81bb      	LDD  R27,Y+2+1
000d2c 9508      	RET
                 
                 ;OPTIMIZER ADDED SUBROUTINE, CALLED 5 TIMES, CODE SIZE REDUCTION:2 WORDS
                 SUBOPT_0x5D:
000d2d 9614      	ADIW R26,4
000d2e d280      	RCALL __GETW1P
000d2f 9508      	RET
                 
                 ;OPTIMIZER ADDED SUBROUTINE, CALLED 2 TIMES, CODE SIZE REDUCTION:2 WORDS
                 SUBOPT_0x5E:
000d30 91ed      	LD   R30,X+
000d31 91fd      	LD   R31,X+
000d32 9631      	ADIW R30,1
000d33 93fe      	ST   -X,R31
000d34 93ee      	ST   -X,R30
000d35 9508      	RET
                 
                 ;OPTIMIZER ADDED SUBROUTINE, CALLED 5 TIMES, CODE SIZE REDUCTION:18 WORDS
                 SUBOPT_0x5F:
000d36 932a      	ST   -Y,R18
000d37 85ad      	LDD  R26,Y+13
000d38 85be      	LDD  R27,Y+13+1
000d39 85ef      	LDD  R30,Y+15
000d3a 89f8      	LDD  R31,Y+15+1
000d3b 9509      	ICALL
000d3c 9508      	RET
                 
                 ;OPTIMIZER ADDED SUBROUTINE, CALLED 6 TIMES, CODE SIZE REDUCTION:3 WORDS
                 SUBOPT_0x60:
000d3d 89e8      	LDD  R30,Y+16
000d3e 89f9      	LDD  R31,Y+16+1
000d3f 9508      	RET
                 
                 ;OPTIMIZER ADDED SUBROUTINE, CALLED 5 TIMES, CODE SIZE REDUCTION:6 WORDS
                 SUBOPT_0x61:
000d40 9734      	SBIW R30,4
000d41 8be8      	STD  Y+16,R30
000d42 8bf9      	STD  Y+16+1,R31
000d43 9508      	RET
                 
                 ;OPTIMIZER ADDED SUBROUTINE, CALLED 3 TIMES, CODE SIZE REDUCTION:6 WORDS
                 SUBOPT_0x62:
000d44 85ad      	LDD  R26,Y+13
000d45 85be      	LDD  R27,Y+13+1
000d46 85ef      	LDD  R30,Y+15
000d47 89f8      	LDD  R31,Y+15+1
000d48 9509      	ICALL
000d49 9508      	RET
                 
                 ;OPTIMIZER ADDED SUBROUTINE, CALLED 4 TIMES, CODE SIZE REDUCTION:1 WORDS
                 SUBOPT_0x63:
000d4a dff2      	RCALL SUBOPT_0x60
000d4b cff4      	RJMP SUBOPT_0x61
                 
                 ;OPTIMIZER ADDED SUBROUTINE, CALLED 4 TIMES, CODE SIZE REDUCTION:4 WORDS
                 SUBOPT_0x64:
000d4c 89a8      	LDD  R26,Y+16
000d4d 89b9      	LDD  R27,Y+16+1
000d4e cfde      	RJMP SUBOPT_0x5D
                 
                 ;OPTIMIZER ADDED SUBROUTINE, CALLED 6 TIMES, CODE SIZE REDUCTION:3 WORDS
                 SUBOPT_0x65:
000d4f 83ee      	STD  Y+6,R30
000d50 83ff      	STD  Y+6+1,R31
000d51 9508      	RET
                 
                 ;OPTIMIZER ADDED SUBROUTINE, CALLED 4 TIMES, CODE SIZE REDUCTION:1 WORDS
                 SUBOPT_0x66:
000d52 87ea      	STD  Y+10,R30
000d53 87fb      	STD  Y+10+1,R31
000d54 9508      	RET
                 
                 ;OPTIMIZER ADDED SUBROUTINE, CALLED 2 TIMES, CODE SIZE REDUCTION:1 WORDS
                 SUBOPT_0x67:
000d55 01de      	MOVW R26,R28
000d56 961c      	ADIW R26,12
000d57 d206      	RCALL __ADDW2R15
000d58 d256      	RCALL __GETW1P
000d59 9508      	RET
                 
                 
                 	.CSEG
                 	.equ __sda_bit=1
                 	.equ __scl_bit=0
                 	.equ __i2c_port=0x12 ;PORTD
                 	.equ __i2c_dir=__i2c_port-1
                 	.equ __i2c_pin=__i2c_port-2
                 
                 _i2c_init:
000d5a 9890      	cbi  __i2c_port,__scl_bit
000d5b 9891      	cbi  __i2c_port,__sda_bit
000d5c 9a88      	sbi  __i2c_dir,__scl_bit
000d5d 9889      	cbi  __i2c_dir,__sda_bit
000d5e c015      	rjmp __i2c_delay2
                 _i2c_start:
000d5f 9889      	cbi  __i2c_dir,__sda_bit
000d60 9888      	cbi  __i2c_dir,__scl_bit
000d61 27ee      	clr  r30
000d62 0000      	nop
000d63 9b81      	sbis __i2c_pin,__sda_bit
000d64 9508      	ret
000d65 9b80      	sbis __i2c_pin,__scl_bit
000d66 9508      	ret
000d67 d004      	rcall __i2c_delay1
000d68 9a89      	sbi  __i2c_dir,__sda_bit
000d69 d002      	rcall __i2c_delay1
000d6a 9a88      	sbi  __i2c_dir,__scl_bit
000d6b e0e1      	ldi  r30,1
                 __i2c_delay1:
000d6c e06d      	ldi  r22,13
000d6d c007      	rjmp __i2c_delay2l
                 _i2c_stop:
000d6e 9a89      	sbi  __i2c_dir,__sda_bit
000d6f 9a88      	sbi  __i2c_dir,__scl_bit
000d70 d003      	rcall __i2c_delay2
000d71 9888      	cbi  __i2c_dir,__scl_bit
000d72 dff9      	rcall __i2c_delay1
000d73 9889      	cbi  __i2c_dir,__sda_bit
                 __i2c_delay2:
000d74 e16b      	ldi  r22,27
                 __i2c_delay2l:
000d75 956a      	dec  r22
000d76 f7f1      	brne __i2c_delay2l
000d77 9508      	ret
                 _i2c_read:
000d78 e078      	ldi  r23,8
                 __i2c_read0:
000d79 9888      	cbi  __i2c_dir,__scl_bit
000d7a dff1      	rcall __i2c_delay1
                 __i2c_read3:
000d7b 9b80      	sbis __i2c_pin,__scl_bit
000d7c cffe      	rjmp __i2c_read3
000d7d dfee      	rcall __i2c_delay1
000d7e 9488      	clc
000d7f 9981      	sbic __i2c_pin,__sda_bit
000d80 9408      	sec
000d81 9a88      	sbi  __i2c_dir,__scl_bit
000d82 dff1      	rcall __i2c_delay2
000d83 1fee      	rol  r30
000d84 957a      	dec  r23
000d85 f799      	brne __i2c_read0
000d86 2f7a      	mov  r23,r26
000d87 2377      	tst  r23
000d88 f411      	brne __i2c_read1
000d89 9889      	cbi  __i2c_dir,__sda_bit
000d8a c001      	rjmp __i2c_read2
                 __i2c_read1:
000d8b 9a89      	sbi  __i2c_dir,__sda_bit
                 __i2c_read2:
000d8c dfdf      	rcall __i2c_delay1
000d8d 9888      	cbi  __i2c_dir,__scl_bit
000d8e dfe5      	rcall __i2c_delay2
000d8f 9a88      	sbi  __i2c_dir,__scl_bit
000d90 dfdb      	rcall __i2c_delay1
000d91 9889      	cbi  __i2c_dir,__sda_bit
000d92 cfd9      	rjmp __i2c_delay1
                 
                 _i2c_write:
000d93 e078      	ldi  r23,8
                 __i2c_write0:
000d94 0faa      	lsl  r26
000d95 f410      	brcc __i2c_write1
000d96 9889      	cbi  __i2c_dir,__sda_bit
000d97 c001      	rjmp __i2c_write2
                 __i2c_write1:
000d98 9a89      	sbi  __i2c_dir,__sda_bit
                 __i2c_write2:
000d99 dfda      	rcall __i2c_delay2
000d9a 9888      	cbi  __i2c_dir,__scl_bit
000d9b dfd0      	rcall __i2c_delay1
                 __i2c_write3:
000d9c 9b80      	sbis __i2c_pin,__scl_bit
000d9d cffe      	rjmp __i2c_write3
000d9e dfcd      	rcall __i2c_delay1
000d9f 9a88      	sbi  __i2c_dir,__scl_bit
000da0 957a      	dec  r23
000da1 f791      	brne __i2c_write0
000da2 9889      	cbi  __i2c_dir,__sda_bit
000da3 dfc8      	rcall __i2c_delay1
000da4 9888      	cbi  __i2c_dir,__scl_bit
000da5 dfce      	rcall __i2c_delay2
000da6 e0e1      	ldi  r30,1
000da7 9981      	sbic __i2c_pin,__sda_bit
000da8 27ee      	clr  r30
000da9 9a88      	sbi  __i2c_dir,__scl_bit
000daa cfc1      	rjmp __i2c_delay1
                 
                 _delay_ms:
000dab 9610      	adiw r26,0
000dac f039      	breq __delay_ms1
                 __delay_ms0:
                +
000dad ed80     +LDI R24 , LOW ( 0x7D0 )
000dae e097     +LDI R25 , HIGH ( 0x7D0 )
                +__DELAY_USW_LOOP :
000daf 9701     +SBIW R24 , 1
000db0 f7f1     +BRNE __DELAY_USW_LOOP
                 	__DELAY_USW 0x7D0
000db1 95a8      	wdr
000db2 9711      	sbiw r26,1
000db3 f7c9      	brne __delay_ms0
                 __delay_ms1:
000db4 9508      	ret
                 
                 __ANEGF1:
000db5 9730      	SBIW R30,0
000db6 4060      	SBCI R22,0
000db7 4070      	SBCI R23,0
000db8 f009      	BREQ __ANEGF10
000db9 5870      	SUBI R23,0x80
                 __ANEGF10:
000dba 9508      	RET
                 
                 __ROUND_REPACK:
000dbb 2355      	TST  R21
000dbc f442      	BRPL __REPACK
000dbd 3850      	CPI  R21,0x80
000dbe f411      	BRNE __ROUND_REPACK0
000dbf ffe0      	SBRS R30,0
000dc0 c004      	RJMP __REPACK
                 __ROUND_REPACK0:
000dc1 9631      	ADIW R30,1
000dc2 1f69      	ADC  R22,R25
000dc3 1f79      	ADC  R23,R25
000dc4 f06b      	BRVS __REPACK1
                 
                 __REPACK:
000dc5 e850      	LDI  R21,0x80
000dc6 2757      	EOR  R21,R23
000dc7 f411      	BRNE __REPACK0
000dc8 935f      	PUSH R21
000dc9 c0cf      	RJMP __ZERORES
                 __REPACK0:
000dca 3f5f      	CPI  R21,0xFF
000dcb f031      	BREQ __REPACK1
000dcc 0f66      	LSL  R22
000dcd 0c00      	LSL  R0
000dce 9557      	ROR  R21
000dcf 9567      	ROR  R22
000dd0 2f75      	MOV  R23,R21
000dd1 9508      	RET
                 __REPACK1:
000dd2 935f      	PUSH R21
000dd3 2000      	TST  R0
000dd4 f00a      	BRMI __REPACK2
000dd5 c0cf      	RJMP __MAXRES
                 __REPACK2:
000dd6 c0c8      	RJMP __MINRES
                 
                 __UNPACK:
000dd7 e850      	LDI  R21,0x80
000dd8 2e19      	MOV  R1,R25
000dd9 2215      	AND  R1,R21
000dda 0f88      	LSL  R24
000ddb 1f99      	ROL  R25
000ddc 2795      	EOR  R25,R21
000ddd 0f55      	LSL  R21
000dde 9587      	ROR  R24
                 
                 __UNPACK1:
000ddf e850      	LDI  R21,0x80
000de0 2e07      	MOV  R0,R23
000de1 2205      	AND  R0,R21
000de2 0f66      	LSL  R22
000de3 1f77      	ROL  R23
000de4 2775      	EOR  R23,R21
000de5 0f55      	LSL  R21
000de6 9567      	ROR  R22
000de7 9508      	RET
                 
                 __CFD1U:
000de8 9468      	SET
000de9 c001      	RJMP __CFD1U0
                 __CFD1:
000dea 94e8      	CLT
                 __CFD1U0:
000deb 935f      	PUSH R21
000dec dff2      	RCALL __UNPACK1
000ded 3870      	CPI  R23,0x80
000dee f018      	BRLO __CFD10
000def 3f7f      	CPI  R23,0xFF
000df0 f408      	BRCC __CFD10
000df1 c0a7      	RJMP __ZERORES
                 __CFD10:
000df2 e156      	LDI  R21,22
000df3 1b57      	SUB  R21,R23
000df4 f4aa      	BRPL __CFD11
000df5 9551      	NEG  R21
000df6 3058      	CPI  R21,8
000df7 f40e      	BRTC __CFD19
000df8 3059      	CPI  R21,9
                 __CFD19:
000df9 f030      	BRLO __CFD17
000dfa efef      	SER  R30
000dfb efff      	SER  R31
000dfc ef6f      	SER  R22
000dfd e77f      	LDI  R23,0x7F
000dfe f977      	BLD  R23,7
000dff c01a      	RJMP __CFD15
                 __CFD17:
000e00 2777      	CLR  R23
000e01 2355      	TST  R21
000e02 f0b9      	BREQ __CFD15
                 __CFD18:
000e03 0fee      	LSL  R30
000e04 1fff      	ROL  R31
000e05 1f66      	ROL  R22
000e06 1f77      	ROL  R23
000e07 955a      	DEC  R21
000e08 f7d1      	BRNE __CFD18
000e09 c010      	RJMP __CFD15
                 __CFD11:
000e0a 2777      	CLR  R23
                 __CFD12:
000e0b 3058      	CPI  R21,8
000e0c f028      	BRLO __CFD13
000e0d 2fef      	MOV  R30,R31
000e0e 2ff6      	MOV  R31,R22
000e0f 2f67      	MOV  R22,R23
000e10 5058      	SUBI R21,8
000e11 cff9      	RJMP __CFD12
                 __CFD13:
000e12 2355      	TST  R21
000e13 f031      	BREQ __CFD15
                 __CFD14:
000e14 9576      	LSR  R23
000e15 9567      	ROR  R22
000e16 95f7      	ROR  R31
000e17 95e7      	ROR  R30
000e18 955a      	DEC  R21
000e19 f7d1      	BRNE __CFD14
                 __CFD15:
000e1a 2000      	TST  R0
000e1b f40a      	BRPL __CFD16
000e1c d149      	RCALL __ANEGD1
                 __CFD16:
000e1d 915f      	POP  R21
000e1e 9508      	RET
                 
                 __CDF1U:
000e1f 9468      	SET
000e20 c001      	RJMP __CDF1U0
                 __CDF1:
000e21 94e8      	CLT
                 __CDF1U0:
000e22 9730      	SBIW R30,0
000e23 4060      	SBCI R22,0
000e24 4070      	SBCI R23,0
000e25 f0b1      	BREQ __CDF10
000e26 2400      	CLR  R0
000e27 f026      	BRTS __CDF11
000e28 2377      	TST  R23
000e29 f412      	BRPL __CDF11
000e2a 9400      	COM  R0
000e2b d13a      	RCALL __ANEGD1
                 __CDF11:
000e2c 2e17      	MOV  R1,R23
000e2d e17e      	LDI  R23,30
000e2e 2011      	TST  R1
                 __CDF12:
000e2f f032      	BRMI __CDF13
000e30 957a      	DEC  R23
000e31 0fee      	LSL  R30
000e32 1fff      	ROL  R31
000e33 1f66      	ROL  R22
000e34 1c11      	ROL  R1
000e35 cff9      	RJMP __CDF12
                 __CDF13:
000e36 2fef      	MOV  R30,R31
000e37 2ff6      	MOV  R31,R22
000e38 2d61      	MOV  R22,R1
000e39 935f      	PUSH R21
000e3a df8a      	RCALL __REPACK
000e3b 915f      	POP  R21
                 __CDF10:
000e3c 9508      	RET
                 
                 __SWAPACC:
000e3d 934f      	PUSH R20
000e3e 01af      	MOVW R20,R30
000e3f 01fd      	MOVW R30,R26
000e40 01da      	MOVW R26,R20
000e41 01ab      	MOVW R20,R22
000e42 01bc      	MOVW R22,R24
000e43 01ca      	MOVW R24,R20
000e44 2d40      	MOV  R20,R0
000e45 2c01      	MOV  R0,R1
000e46 2e14      	MOV  R1,R20
000e47 914f      	POP  R20
000e48 9508      	RET
                 
                 __UADD12:
000e49 0fea      	ADD  R30,R26
000e4a 1ffb      	ADC  R31,R27
000e4b 1f68      	ADC  R22,R24
000e4c 9508      	RET
                 
                 __NEGMAN1:
000e4d 95e0      	COM  R30
000e4e 95f0      	COM  R31
000e4f 9560      	COM  R22
000e50 5fef      	SUBI R30,-1
000e51 4fff      	SBCI R31,-1
000e52 4f6f      	SBCI R22,-1
000e53 9508      	RET
                 
                 __SUBF12:
000e54 935f      	PUSH R21
000e55 df81      	RCALL __UNPACK
000e56 3890      	CPI  R25,0x80
000e57 f171      	BREQ __ADDF129
000e58 e850      	LDI  R21,0x80
000e59 2615      	EOR  R1,R21
                 
000e5a c004      	RJMP __ADDF120
                 
                 __ADDF12:
000e5b 935f      	PUSH R21
000e5c df7a      	RCALL __UNPACK
000e5d 3890      	CPI  R25,0x80
000e5e f139      	BREQ __ADDF129
                 
                 __ADDF120:
000e5f 3870      	CPI  R23,0x80
000e60 f121      	BREQ __ADDF128
                 __ADDF121:
000e61 2f57      	MOV  R21,R23
000e62 1b59      	SUB  R21,R25
000e63 f12b      	BRVS __ADDF1211
000e64 f412      	BRPL __ADDF122
000e65 dfd7      	RCALL __SWAPACC
000e66 cffa      	RJMP __ADDF121
                 __ADDF122:
000e67 3158      	CPI  R21,24
000e68 f018      	BRLO __ADDF123
000e69 27aa      	CLR  R26
000e6a 27bb      	CLR  R27
000e6b 2788      	CLR  R24
                 __ADDF123:
000e6c 3058      	CPI  R21,8
000e6d f028      	BRLO __ADDF124
000e6e 2fab      	MOV  R26,R27
000e6f 2fb8      	MOV  R27,R24
000e70 2788      	CLR  R24
000e71 5058      	SUBI R21,8
000e72 cff9      	RJMP __ADDF123
                 __ADDF124:
000e73 2355      	TST  R21
000e74 f029      	BREQ __ADDF126
                 __ADDF125:
000e75 9586      	LSR  R24
000e76 95b7      	ROR  R27
000e77 95a7      	ROR  R26
000e78 955a      	DEC  R21
000e79 f7d9      	BRNE __ADDF125
                 __ADDF126:
000e7a 2d50      	MOV  R21,R0
000e7b 2551      	EOR  R21,R1
000e7c f072      	BRMI __ADDF127
000e7d dfcb      	RCALL __UADD12
000e7e f438      	BRCC __ADDF129
000e7f 9567      	ROR  R22
000e80 95f7      	ROR  R31
000e81 95e7      	ROR  R30
000e82 9573      	INC  R23
000e83 f413      	BRVC __ADDF129
000e84 c020      	RJMP __MAXRES
                 __ADDF128:
000e85 dfb7      	RCALL __SWAPACC
                 __ADDF129:
000e86 df3e      	RCALL __REPACK
000e87 915f      	POP  R21
000e88 9508      	RET
                 __ADDF1211:
000e89 f7d8      	BRCC __ADDF128
000e8a cffb      	RJMP __ADDF129
                 __ADDF127:
000e8b 1bea      	SUB  R30,R26
000e8c 0bfb      	SBC  R31,R27
000e8d 0b68      	SBC  R22,R24
000e8e f051      	BREQ __ZERORES
000e8f f410      	BRCC __ADDF1210
000e90 9400      	COM  R0
000e91 dfbb      	RCALL __NEGMAN1
                 __ADDF1210:
000e92 2366      	TST  R22
000e93 f392      	BRMI __ADDF129
000e94 0fee      	LSL  R30
000e95 1fff      	ROL  R31
000e96 1f66      	ROL  R22
000e97 957a      	DEC  R23
000e98 f7cb      	BRVC __ADDF1210
                 
                 __ZERORES:
000e99 27ee      	CLR  R30
000e9a 27ff      	CLR  R31
000e9b 2766      	CLR  R22
000e9c 2777      	CLR  R23
000e9d 915f      	POP  R21
000e9e 9508      	RET
                 
                 __MINRES:
000e9f efef      	SER  R30
000ea0 efff      	SER  R31
000ea1 e76f      	LDI  R22,0x7F
000ea2 ef7f      	SER  R23
000ea3 915f      	POP  R21
000ea4 9508      	RET
                 
                 __MAXRES:
000ea5 efef      	SER  R30
000ea6 efff      	SER  R31
000ea7 e76f      	LDI  R22,0x7F
000ea8 e77f      	LDI  R23,0x7F
000ea9 915f      	POP  R21
000eaa 9508      	RET
                 
                 __MULF12:
000eab 935f      	PUSH R21
000eac df2a      	RCALL __UNPACK
000ead 3870      	CPI  R23,0x80
000eae f351      	BREQ __ZERORES
000eaf 3890      	CPI  R25,0x80
000eb0 f341      	BREQ __ZERORES
000eb1 2401      	EOR  R0,R1
000eb2 9408      	SEC
000eb3 1f79      	ADC  R23,R25
000eb4 f423      	BRVC __MULF124
000eb5 f31c      	BRLT __ZERORES
                 __MULF125:
000eb6 2000      	TST  R0
000eb7 f33a      	BRMI __MINRES
000eb8 cfec      	RJMP __MAXRES
                 __MULF124:
000eb9 920f      	PUSH R0
000eba 931f      	PUSH R17
000ebb 932f      	PUSH R18
000ebc 933f      	PUSH R19
000ebd 934f      	PUSH R20
000ebe 2711      	CLR  R17
000ebf 2722      	CLR  R18
000ec0 2799      	CLR  R25
000ec1 9f68      	MUL  R22,R24
000ec2 01a0      	MOVW R20,R0
000ec3 9f8f      	MUL  R24,R31
000ec4 2d30      	MOV  R19,R0
000ec5 0d41      	ADD  R20,R1
000ec6 1f59      	ADC  R21,R25
000ec7 9f6b      	MUL  R22,R27
000ec8 0d30      	ADD  R19,R0
000ec9 1d41      	ADC  R20,R1
000eca 1f59      	ADC  R21,R25
000ecb 9f8e      	MUL  R24,R30
000ecc d027      	RCALL __MULF126
000ecd 9fbf      	MUL  R27,R31
000ece d025      	RCALL __MULF126
000ecf 9f6a      	MUL  R22,R26
000ed0 d023      	RCALL __MULF126
000ed1 9fbe      	MUL  R27,R30
000ed2 d01d      	RCALL __MULF127
000ed3 9faf      	MUL  R26,R31
000ed4 d01b      	RCALL __MULF127
000ed5 9fae      	MUL  R26,R30
000ed6 0d11      	ADD  R17,R1
000ed7 1f29      	ADC  R18,R25
000ed8 1f39      	ADC  R19,R25
000ed9 1f49      	ADC  R20,R25
000eda 1f59      	ADC  R21,R25
000edb 2fe3      	MOV  R30,R19
000edc 2ff4      	MOV  R31,R20
000edd 2f65      	MOV  R22,R21
000ede 2f52      	MOV  R21,R18
000edf 914f      	POP  R20
000ee0 913f      	POP  R19
000ee1 912f      	POP  R18
000ee2 911f      	POP  R17
000ee3 900f      	POP  R0
000ee4 2366      	TST  R22
000ee5 f02a      	BRMI __MULF122
000ee6 0f55      	LSL  R21
000ee7 1fee      	ROL  R30
000ee8 1fff      	ROL  R31
000ee9 1f66      	ROL  R22
000eea c002      	RJMP __MULF123
                 __MULF122:
000eeb 9573      	INC  R23
000eec f24b      	BRVS __MULF125
                 __MULF123:
000eed decd      	RCALL __ROUND_REPACK
000eee 915f      	POP  R21
000eef 9508      	RET
                 
                 __MULF127:
000ef0 0d10      	ADD  R17,R0
000ef1 1d21      	ADC  R18,R1
000ef2 1f39      	ADC  R19,R25
000ef3 c002      	RJMP __MULF128
                 __MULF126:
000ef4 0d20      	ADD  R18,R0
000ef5 1d31      	ADC  R19,R1
                 __MULF128:
000ef6 1f49      	ADC  R20,R25
000ef7 1f59      	ADC  R21,R25
000ef8 9508      	RET
                 
                 __DIVF21:
000ef9 935f      	PUSH R21
000efa dedc      	RCALL __UNPACK
000efb 3870      	CPI  R23,0x80
000efc f421      	BRNE __DIVF210
000efd 2011      	TST  R1
                 __DIVF211:
000efe f40a      	BRPL __DIVF219
000eff cf9f      	RJMP __MINRES
                 __DIVF219:
000f00 cfa4      	RJMP __MAXRES
                 __DIVF210:
000f01 3890      	CPI  R25,0x80
000f02 f409      	BRNE __DIVF218
                 __DIVF217:
000f03 cf95      	RJMP __ZERORES
                 __DIVF218:
000f04 2401      	EOR  R0,R1
000f05 9408      	SEC
000f06 0b97      	SBC  R25,R23
000f07 f41b      	BRVC __DIVF216
000f08 f3d4      	BRLT __DIVF217
000f09 2000      	TST  R0
000f0a cff3      	RJMP __DIVF211
                 __DIVF216:
000f0b 2f79      	MOV  R23,R25
000f0c 931f      	PUSH R17
000f0d 932f      	PUSH R18
000f0e 933f      	PUSH R19
000f0f 934f      	PUSH R20
000f10 2411      	CLR  R1
000f11 2711      	CLR  R17
000f12 2722      	CLR  R18
000f13 2733      	CLR  R19
000f14 2744      	CLR  R20
000f15 2755      	CLR  R21
000f16 e290      	LDI  R25,32
                 __DIVF212:
000f17 17ae      	CP   R26,R30
000f18 07bf      	CPC  R27,R31
000f19 0786      	CPC  R24,R22
000f1a 0741      	CPC  R20,R17
000f1b f030      	BRLO __DIVF213
000f1c 1bae      	SUB  R26,R30
000f1d 0bbf      	SBC  R27,R31
000f1e 0b86      	SBC  R24,R22
000f1f 0b41      	SBC  R20,R17
000f20 9408      	SEC
000f21 c001      	RJMP __DIVF214
                 __DIVF213:
000f22 9488      	CLC
                 __DIVF214:
000f23 1f55      	ROL  R21
000f24 1f22      	ROL  R18
000f25 1f33      	ROL  R19
000f26 1c11      	ROL  R1
000f27 1faa      	ROL  R26
000f28 1fbb      	ROL  R27
000f29 1f88      	ROL  R24
000f2a 1f44      	ROL  R20
000f2b 959a      	DEC  R25
000f2c f751      	BRNE __DIVF212
000f2d 01f9      	MOVW R30,R18
000f2e 2d61      	MOV  R22,R1
000f2f 914f      	POP  R20
000f30 913f      	POP  R19
000f31 912f      	POP  R18
000f32 911f      	POP  R17
000f33 2366      	TST  R22
000f34 f032      	BRMI __DIVF215
000f35 0f55      	LSL  R21
000f36 1fee      	ROL  R30
000f37 1fff      	ROL  R31
000f38 1f66      	ROL  R22
000f39 957a      	DEC  R23
000f3a f243      	BRVS __DIVF217
                 __DIVF215:
000f3b de7f      	RCALL __ROUND_REPACK
000f3c 915f      	POP  R21
000f3d 9508      	RET
                 
                 __CMPF12:
000f3e 2399      	TST  R25
000f3f f09a      	BRMI __CMPF120
000f40 2377      	TST  R23
000f41 f042      	BRMI __CMPF121
000f42 1797      	CP   R25,R23
000f43 f048      	BRLO __CMPF122
000f44 f429      	BRNE __CMPF121
000f45 17ae      	CP   R26,R30
000f46 07bf      	CPC  R27,R31
000f47 0786      	CPC  R24,R22
000f48 f020      	BRLO __CMPF122
000f49 f031      	BREQ __CMPF123
                 __CMPF121:
000f4a 9498      	CLZ
000f4b 9488      	CLC
000f4c 9508      	RET
                 __CMPF122:
000f4d 9498      	CLZ
000f4e 9408      	SEC
000f4f 9508      	RET
                 __CMPF123:
000f50 9418      	SEZ
000f51 9488      	CLC
000f52 9508      	RET
                 __CMPF120:
000f53 2377      	TST  R23
000f54 f7c2      	BRPL __CMPF122
000f55 1797      	CP   R25,R23
000f56 f398      	BRLO __CMPF121
000f57 f7a9      	BRNE __CMPF122
000f58 17ea      	CP   R30,R26
000f59 07fb      	CPC  R31,R27
000f5a 0768      	CPC  R22,R24
000f5b f388      	BRLO __CMPF122
000f5c f399      	BREQ __CMPF123
000f5d cfec      	RJMP __CMPF121
                 
                 __ADDW2R15:
000f5e 2400      	CLR  R0
000f5f 0daf      	ADD  R26,R15
000f60 1db0      	ADC  R27,R0
000f61 9508      	RET
                 
                 __ANEGW1:
000f62 95f1      	NEG  R31
000f63 95e1      	NEG  R30
000f64 40f0      	SBCI R31,0
000f65 9508      	RET
                 
                 __ANEGD1:
000f66 95f0      	COM  R31
000f67 9560      	COM  R22
000f68 9570      	COM  R23
000f69 95e1      	NEG  R30
000f6a 4fff      	SBCI R31,-1
000f6b 4f6f      	SBCI R22,-1
000f6c 4f7f      	SBCI R23,-1
000f6d 9508      	RET
                 
                 __LSLB12:
000f6e 23ee      	TST  R30
000f6f 2e0e      	MOV  R0,R30
000f70 2fea      	MOV  R30,R26
000f71 f019      	BREQ __LSLB12R
                 __LSLB12L:
000f72 0fee      	LSL  R30
000f73 940a      	DEC  R0
000f74 f7e9      	BRNE __LSLB12L
                 __LSLB12R:
000f75 9508      	RET
                 
                 __LSLW12:
000f76 23ee      	TST  R30
000f77 2e0e      	MOV  R0,R30
000f78 01fd      	MOVW R30,R26
000f79 f021      	BREQ __LSLW12R
                 __LSLW12L:
000f7a 0fee      	LSL  R30
000f7b 1fff      	ROL  R31
000f7c 940a      	DEC  R0
000f7d f7e1      	BRNE __LSLW12L
                 __LSLW12R:
000f7e 9508      	RET
                 
                 __ASRW8:
000f7f 2fef      	MOV  R30,R31
000f80 27ff      	CLR  R31
000f81 fde7      	SBRC R30,7
000f82 efff      	SER  R31
000f83 9508      	RET
                 
                 __CWD1:
000f84 2f6f      	MOV  R22,R31
000f85 0f66      	ADD  R22,R22
000f86 0b66      	SBC  R22,R22
000f87 2f76      	MOV  R23,R22
000f88 9508      	RET
                 
                 __EQB12:
000f89 17ea      	CP   R30,R26
000f8a e0e1      	LDI  R30,1
000f8b f009      	BREQ __EQB12T
000f8c 27ee      	CLR  R30
                 __EQB12T:
000f8d 9508      	RET
                 
                 __DIVW21U:
000f8e 2400      	CLR  R0
000f8f 2411      	CLR  R1
000f90 e190      	LDI  R25,16
                 __DIVW21U1:
000f91 0faa      	LSL  R26
000f92 1fbb      	ROL  R27
000f93 1c00      	ROL  R0
000f94 1c11      	ROL  R1
000f95 1a0e      	SUB  R0,R30
000f96 0a1f      	SBC  R1,R31
000f97 f418      	BRCC __DIVW21U2
000f98 0e0e      	ADD  R0,R30
000f99 1e1f      	ADC  R1,R31
000f9a c001      	RJMP __DIVW21U3
                 __DIVW21U2:
000f9b 60a1      	SBR  R26,1
                 __DIVW21U3:
000f9c 959a      	DEC  R25
000f9d f799      	BRNE __DIVW21U1
000f9e 01fd      	MOVW R30,R26
000f9f 01d0      	MOVW R26,R0
000fa0 9508      	RET
                 
                 __MODW21:
000fa1 94e8      	CLT
000fa2 ffb7      	SBRS R27,7
000fa3 c004      	RJMP __MODW211
000fa4 95a0      	COM  R26
000fa5 95b0      	COM  R27
000fa6 9611      	ADIW R26,1
000fa7 9468      	SET
                 __MODW211:
000fa8 fdf7      	SBRC R31,7
000fa9 dfb8      	RCALL __ANEGW1
000faa dfe3      	RCALL __DIVW21U
000fab 01fd      	MOVW R30,R26
000fac f40e      	BRTC __MODW212
000fad dfb4      	RCALL __ANEGW1
                 __MODW212:
000fae 9508      	RET
                 
                 __GETW1P:
000faf 91ed      	LD   R30,X+
000fb0 91fc      	LD   R31,X
000fb1 9711      	SBIW R26,1
000fb2 9508      	RET
                 
                 __PUTDP1:
000fb3 93ed      	ST   X+,R30
000fb4 93fd      	ST   X+,R31
000fb5 936d      	ST   X+,R22
000fb6 937c      	ST   X,R23
000fb7 9508      	RET
                 
                 __GETW1PF:
000fb8 9005      	LPM  R0,Z+
000fb9 91f4      	LPM  R31,Z
000fba 2de0      	MOV  R30,R0
000fbb 9508      	RET
                 
                 __GETD1S0:
000fbc 81e8      	LD   R30,Y
000fbd 81f9      	LDD  R31,Y+1
000fbe 816a      	LDD  R22,Y+2
000fbf 817b      	LDD  R23,Y+3
000fc0 9508      	RET
                 
                 __GETD2S0:
000fc1 81a8      	LD   R26,Y
000fc2 81b9      	LDD  R27,Y+1
000fc3 818a      	LDD  R24,Y+2
000fc4 819b      	LDD  R25,Y+3
000fc5 9508      	RET
                 
                 __PUTD1S0:
000fc6 83e8      	ST   Y,R30
000fc7 83f9      	STD  Y+1,R31
000fc8 836a      	STD  Y+2,R22
000fc9 837b      	STD  Y+3,R23
000fca 9508      	RET
                 
                 __PUTPARD1:
000fcb 937a      	ST   -Y,R23
000fcc 936a      	ST   -Y,R22
000fcd 93fa      	ST   -Y,R31
000fce 93ea      	ST   -Y,R30
000fcf 9508      	RET
                 
                 __PUTPARD2:
000fd0 939a      	ST   -Y,R25
000fd1 938a      	ST   -Y,R24
000fd2 93ba      	ST   -Y,R27
000fd3 93aa      	ST   -Y,R26
000fd4 9508      	RET
                 
                 __SWAPD12:
000fd5 2e18      	MOV  R1,R24
000fd6 2f86      	MOV  R24,R22
000fd7 2d61      	MOV  R22,R1
000fd8 2e19      	MOV  R1,R25
000fd9 2f97      	MOV  R25,R23
000fda 2d71      	MOV  R23,R1
                 
                 __SWAPW12:
000fdb 2e1b      	MOV  R1,R27
000fdc 2fbf      	MOV  R27,R31
000fdd 2df1      	MOV  R31,R1
                 
                 __SWAPB12:
000fde 2e1a      	MOV  R1,R26
000fdf 2fae      	MOV  R26,R30
000fe0 2de1      	MOV  R30,R1
000fe1 9508      	RET
                 
                 __SAVELOCR6:
000fe2 935a      	ST   -Y,R21
                 __SAVELOCR5:
000fe3 934a      	ST   -Y,R20
                 __SAVELOCR4:
000fe4 933a      	ST   -Y,R19
                 __SAVELOCR3:
000fe5 932a      	ST   -Y,R18
                 __SAVELOCR2:
000fe6 931a      	ST   -Y,R17
000fe7 930a      	ST   -Y,R16
000fe8 9508      	RET
                 
                 __LOADLOCR6:
000fe9 815d      	LDD  R21,Y+5
                 __LOADLOCR5:
000fea 814c      	LDD  R20,Y+4
                 __LOADLOCR4:
000feb 813b      	LDD  R19,Y+3
                 __LOADLOCR3:
000fec 812a      	LDD  R18,Y+2
                 __LOADLOCR2:
000fed 8119      	LDD  R17,Y+1
000fee 8108      	LD   R16,Y
000fef 9508      	RET
                 
                 __INITLOCB:
                 __INITLOCW:
000ff0 0fac      	ADD  R26,R28
000ff1 1fbd      	ADC  R27,R29
                 __INITLOC0:
000ff2 9005      	LPM  R0,Z+
000ff3 920d      	ST   X+,R0
000ff4 958a      	DEC  R24
000ff5 f7e1      	BRNE __INITLOC0
000ff6 9508      	RET
                 
                 ;END OF CODE MARKER
                 __END_OF_CODE:


RESOURCE USE INFORMATION
------------------------

Notice:
The register and instruction counts are symbol table hit counts,
and hence implicitly used resources are not counted, eg, the
'lpm' instruction without operands implicitly uses r0 and z,
none of which are counted.

x,y,z are separate entities in the symbol table and are
counted separately from r26..r31 here.

.dseg memory usage only counts static data declared with .byte

ATmega8 register use summary:
r0 :  55 r1 :  36 r2 :   4 r3 :   0 r4 :   3 r5 :   3 r6 :  10 r7 :   8 
r8 :  16 r9 :  12 r10:   6 r11:   1 r12:  17 r13:  14 r14:   0 r15:  22 
r16:  57 r17:  82 r18:  53 r19:  26 r20:  43 r21:  89 r22:  86 r23:  78 
r24:  69 r25:  55 r26: 417 r27: 141 r28:  56 r29:   2 r30: 610 r31: 179 
x  :  51 y  : 320 z  :  25 
Registers used: 33 out of 35 (94.3%)

ATmega8 instruction use summary:
.lds  :   0 .lds.l:   0 .sts  :   0 .sts.l:   0 adc   :  24 add   :  19 
adiw  :  46 and   :   8 andi  :  20 asr   :   0 bclr  :   0 bld   :  10 
brbc  :   0 brbs  :   0 brcc  :   7 brcs  :   1 break :   0 breq  :  65 
brge  :   4 brhc  :   0 brhs  :   0 brid  :   0 brie  :   0 brlo  :  26 
brlt  :   7 brmi  :  11 brne  : 129 brpl  :   9 brsh  :  14 brtc  :   3 
brts  :   1 brvc  :   4 brvs  :   4 bset  :   0 bst   :   2 cbi   :  30 
cbr   :   1 clc   :   4 clh   :   0 cli   :   2 cln   :   0 clr   :  61 
cls   :   0 clt   :   8 clv   :   0 clz   :   2 com   :  10 cp    :  34 
cpc   :  25 cpi   : 118 cpse  :   0 dec   :  27 des   :   0 eor   :   7 
fmul  :   0 fmuls :   0 fmulsu:   0 icall :   2 ijmp  :   0 in    :   2 
inc   :  15 ld    :  72 ldd   : 144 ldi   : 469 lds   :   6 lpm   :  18 
lsl   :  24 lsr   :   3 mov   : 118 movw  :  78 mul   :  10 muls  :   0 
mulsu :   0 neg   :   4 nop   :   1 or    :   5 ori   :  12 out   :  16 
pop   :  19 push  :  19 rcall : 675 ret   : 124 reti  :   1 rjmp  : 338 
rol   :  31 ror   :  15 sbc   :  11 sbci  :  35 sbi   :  25 sbic  :  31 
sbis  :  40 sbiw  :  35 sbr   :   3 sbrc  :  13 sbrs  :  20 sec   :   6 
seh   :   0 sei   :   2 sen   :   0 ser   :   9 ses   :   0 set   :   7 
sev   :   0 sez   :   1 sleep :   0 spm   :   0 st    : 121 std   :  44 
sts   :  15 sub   :  10 subi  :  68 swap  :   2 tst   :  26 wdr   :   1 

Instructions used: 82 out of 114 (71.9%)

ATmega8 memory use summary [bytes]:
Segment   Begin    End      Code   Data   Used    Size   Use%
---------------------------------------------------------------
[.cseg] 0x000000 0x001fee   7014   1160   8174    8192  99.8%
[.dseg] 0x000060 0x000363      0    515    515    1119  46.0%
[.eseg] 0x000000 0x000000      0      0      0     512   0.0%

Assembly complete, 0 errors, 13 warnings
